(dp0
S'418 68 1.57079632679'
p1
(lp2
sS'201 85 1.57079632679'
p3
(lp4
sS'48 585 1.57079632679'
p5
(lp6
sS'448 439 1.57079632679'
p7
(lp8
sS'607 363 0.0'
p9
(lp10
sS'530 333 1.57079632679'
p11
(lp12
sS'212 606 0.0'
p13
(lp14
sS'206 456 1.57079632679'
p15
(lp16
sS'420 97 1.57079632679'
p17
(lp18
sS'472 465 0.0'
p19
(lp20
sS'211 60 1.57079632679'
p21
(lp22
sS'651 531 0.0'
p23
(lp24
sS'50 683 1.57079632679'
p25
(lp26
sS'640 722 0.0'
p27
(lp28
sS'256 51 0.0'
p29
(lp30
sS'688 272 1.57079632679'
p31
(lp32
sS'48 305 0.0'
p33
(lp34
sS'387 76 0.0'
p35
(lp36
sS'54 87 0.0'
p37
(lp38
sS'604 402 1.57079632679'
p39
(lp40
sS'523 431 1.57079632679'
p41
(lp42
sS'64 75 1.57079632679'
p43
(lp44
sS'304 373 1.57079632679'
p45
(lp46
sS'362 547 1.57079632679'
p47
(lp48
sS'166 66 1.57079632679'
p49
(lp50
sS'454 477 1.57079632679'
p51
(lp52
sS'235 670 0.0'
p53
(lp54
sS'550 681 1.57079632679'
p55
(lp56
sS'341 325 0.0'
p57
(lp58
sS'216 77 1.57079632679'
p59
(lp60
sS'560 116 1.57079632679'
p61
(lp62
sS'471 576 1.57079632679'
p63
(lp64
sS'229 74 0.0'
p65
(lp66
sS'445 467 1.57079632679'
p67
(lp68
sS'361 575 0.0'
p69
(lp70
sS'689 612 1.57079632679'
p71
(lp72
sS'687 387 0.0'
p73
(lp74
sS'93 102 1.57079632679'
p75
(lp76
sS'112 45 1.57079632679'
p77
(lp78
sS'441 461 1.57079632679'
p79
(lp80
sS'440 110 1.57079632679'
p81
(lp82
sS'309 155 1.57079632679'
p83
(lp84
sS'242 469 1.57079632679'
p85
(lp86
sS'652 425 0.0'
p87
(lp88
sS'389 687 1.57079632679'
p89
(lp90
sS'294 291 1.57079632679'
p91
(lp92
sS'212 251 0.0'
p93
(lp94
sS'167 241 0.0'
p95
(lp96
sS'700 430 1.57079632679'
p97
(lp98
sS'430 448 1.57079632679'
p99
(lp100
sS'484 726 0.0'
p101
(lp102
sS'335 380 1.57079632679'
p103
(lp104
sS'664 77 1.57079632679'
p105
(lp106
sS'393 142 1.57079632679'
p107
(lp108
sS'223 338 1.57079632679'
p109
(lp110
sS'495 700 0.0'
p111
(lp112
sS'131 204 0.0'
p113
(lp114
sS'508 455 1.57079632679'
p115
(lp116
sS'698 629 0.0'
p117
(lp118
sS'573 70 1.57079632679'
p119
(lp120
sS'148 676 1.57079632679'
p121
(lp122
sS'575 98 0.0'
p123
(lp124
sS'109 150 1.57079632679'
p125
(lp126
sS'594 717 1.57079632679'
p127
(lp128
sS'347 74 1.57079632679'
p129
(lp130
sS'119 524 1.57079632679'
p131
(lp132
sS'188 244 0.0'
p133
(lp134
sS'123 197 1.57079632679'
p135
(lp136
sS'147 295 0.0'
p137
(lp138
sS'308 367 0.0'
p139
(lp140
sS'244 702 0.0'
p141
(lp142
sS'261 544 0.0'
p143
(lp144
sS'82 657 1.57079632679'
p145
(lp146
sS'608 697 1.57079632679'
p147
(lp148
sS'127 593 0.0'
p149
(lp150
sS'413 63 1.57079632679'
p151
(lp152
sS'147 203 0.0'
p153
(lp154
sS'456 552 1.57079632679'
p155
(lp156
sS'225 388 1.57079632679'
p157
(lp158
sS'505 271 1.57079632679'
p159
(lp160
sS'115 556 1.57079632679'
p161
(lp162
sS'626 159 1.57079632679'
p163
(lp164
sS'334 316 0.0'
p165
(lp166
sS'218 288 0.0'
p167
(lp168
sS'62 663 0.0'
p169
(lp170
sS'629 634 1.57079632679'
p171
(lp172
sS'587 394 1.57079632679'
p173
(lp174
sS'553 582 0.0'
p175
(lp176
sS'151 120 0.0'
p177
(lp178
sS'238 428 0.0'
p179
(lp180
sS'235 262 0.0'
p181
(lp182
sS'154 712 0.0'
p183
(lp184
sS'233 663 1.57079632679'
p185
(lp186
sS'660 572 1.57079632679'
p187
(lp188
sS'370 70 0.0'
p189
(lp190
sS'337 372 0.0'
p191
(lp192
sS'268 545 0.0'
p193
(lp194
sS'633 151 0.0'
p195
(lp196
sS'185 442 1.57079632679'
p197
(lp198
sS'362 353 0.0'
p199
(lp200
sS'543 421 1.57079632679'
p201
(lp202
sS'153 465 0.0'
p203
(lp204
sS'682 560 0.0'
p205
(lp206
sS'603 57 0.0'
p207
(lp208
sS'309 175 1.57079632679'
p209
(lp210
sS'288 180 0.0'
p211
(lp212
sS'380 315 0.0'
p213
(lp214
sS'652 122 0.0'
p215
(lp216
sS'408 363 1.57079632679'
p217
(lp218
sS'157 690 1.57079632679'
p219
(lp220
sS'410 309 0.0'
p221
(lp222
sS'202 67 0.0'
p223
(lp224
sS'155 434 0.0'
p225
(lp226
sS'229 728 1.57079632679'
p227
(lp228
sS'282 372 0.0'
p229
(lp230
sS'673 166 1.57079632679'
p231
(lp232
sS'110 602 0.0'
p233
(lp234
sS'104 403 1.57079632679'
p235
(lp236
sS'553 463 1.57079632679'
p237
(lp238
sS'122 576 0.0'
p239
(lp240
sS'359 54 1.57079632679'
p241
(lp242
sS'475 317 1.57079632679'
p243
(lp244
sS'220 690 1.57079632679'
p245
(lp246
sS'257 570 1.57079632679'
p247
(lp248
sS'47 503 0.0'
p249
(lp250
sS'660 591 0.0'
p251
(lp252
sS'230 683 0.0'
p253
(lp254
sS'467 156 1.57079632679'
p255
(lp256
sS'540 359 0.0'
p257
(lp258
sS'205 723 1.57079632679'
p259
(lp260
sS'118 548 1.57079632679'
p261
(lp262
sS'567 602 1.57079632679'
p263
(lp264
sS'652 524 1.57079632679'
p265
(lp266
sS'58 404 1.57079632679'
p267
(lp268
sS'562 378 1.57079632679'
p269
(lp270
sS'379 386 1.57079632679'
p271
(lp272
sS'405 457 0.0'
p273
(lp274
sS'465 359 0.0'
p275
(lp276
sS'624 627 1.57079632679'
p277
(lp278
sS'126 90 0.0'
p279
(lp280
sS'601 718 0.0'
p281
(lp282
sS'432 352 1.57079632679'
p283
(lp284
sS'135 515 1.57079632679'
p285
(lp286
sS'422 434 1.57079632679'
p287
(lp288
sS'160 471 1.57079632679'
p289
(lp290
sS'399 173 1.57079632679'
p291
(lp292
sS'164 211 0.0'
p293
(lp294
sS'533 560 1.57079632679'
p295
(lp296
sS'582 106 0.0'
p297
(lp298
sS'672 148 1.57079632679'
p299
(lp300
sS'645 274 0.0'
p301
(lp302
sS'107 282 0.0'
p303
(lp304
sS'376 670 1.57079632679'
p305
(lp306
sS'197 43 0.0'
p307
(lp308
sS'685 180 1.57079632679'
p309
(lp310
sS'365 123 0.0'
p311
(lp312
sS'438 572 0.0'
p313
(lp314
sS'561 717 1.57079632679'
p315
(lp316
sS'161 295 0.0'
p317
(lp318
sS'130 304 1.57079632679'
p319
(lp320
sS'100 267 1.57079632679'
p321
(lp322
sS'424 571 0.0'
p323
(lp324
sS'360 632 1.57079632679'
p325
(lp326
sS'570 271 0.0'
p327
(lp328
sS'374 442 1.57079632679'
p329
(lp330
sS'54 692 0.0'
p331
(lp332
sS'334 50 0.0'
p333
(lp334
sS'251 596 1.57079632679'
p335
(lp336
sS'575 623 1.57079632679'
p337
(lp338
sS'263 688 1.57079632679'
p339
(lp340
sS'236 314 0.0'
p341
(lp342
sS'664 693 1.57079632679'
p343
(lp344
sS'458 702 0.0'
p345
(lp346
sS'335 389 1.57079632679'
p347
(lp348
sS'624 121 0.0'
p349
(lp350
sS'88 145 0.0'
p351
(lp352
sS'282 321 1.57079632679'
p353
(lp354
sS'202 405 0.0'
p355
(lp356
sS'214 112 1.57079632679'
p357
(lp358
sS'300 326 0.0'
p359
(lp360
sS'677 702 1.57079632679'
p361
(lp362
sS'225 256 0.0'
p363
(lp364
sS'200 331 0.0'
p365
(lp366
sS'644 165 0.0'
p367
(lp368
sS'263 78 1.57079632679'
p369
(lp370
sS'122 517 0.0'
p371
(lp372
sS'264 650 0.0'
p373
(lp374
sS'239 360 0.0'
p375
(lp376
sS'652 605 1.57079632679'
p377
(lp378
sS'265 462 0.0'
p379
(lp380
sS'75 422 1.57079632679'
p381
(lp382
sS'616 128 0.0'
p383
(lp384
sS'453 80 1.57079632679'
p385
(lp386
sS'107 56 1.57079632679'
p387
(lp388
sS'600 134 0.0'
p389
(lp390
sS'408 176 1.57079632679'
p391
(lp392
sS'192 450 1.57079632679'
p393
(lp394
sS'240 60 0.0'
p395
(lp396
sS'296 162 0.0'
p397
(lp398
sS'589 323 0.0'
p399
(lp400
sS'656 445 1.57079632679'
p401
(lp402
sS'501 568 0.0'
p403
(lp404
sS'157 407 1.57079632679'
p405
(lp406
sS'502 517 0.0'
p407
(lp408
sS'218 129 0.0'
p409
(lp410
sS'220 228 1.57079632679'
p411
(lp412
sS'366 164 1.57079632679'
p413
(lp414
sS'610 392 1.57079632679'
p415
(lp416
sS'361 554 0.0'
p417
(lp418
sS'198 258 1.57079632679'
p419
(lp420
sS'118 564 0.0'
p421
(lp422
sS'205 567 0.0'
p423
(lp424
sS'145 126 0.0'
p425
(lp426
sS'257 89 1.57079632679'
p427
(lp428
sS'408 143 1.57079632679'
p429
(lp430
sS'537 172 1.57079632679'
p431
(lp432
sS'436 75 0.0'
p433
(lp434
sS'584 708 0.0'
p435
(lp436
sS'612 515 1.57079632679'
p437
(lp438
sS'591 622 0.0'
p439
(lp440
sS'424 378 0.0'
p441
(lp442
sS'639 403 1.57079632679'
p443
(lp444
sS'436 332 0.0'
p445
(lp446
sS'259 616 0.0'
p447
(lp448
sS'624 178 1.57079632679'
p449
(lp450
sS'217 429 0.0'
p451
(lp452
sS'557 174 1.57079632679'
p453
(lp454
sS'618 508 1.57079632679'
p455
(lp456
sS'511 143 0.0'
p457
(lp458
sS'251 60 1.57079632679'
p459
(lp460
sS'157 86 1.57079632679'
p461
(lp462
sS'558 324 1.57079632679'
p463
(lp464
sS'625 421 0.0'
p465
(lp466
sS'222 579 0.0'
p467
(lp468
sS'470 271 1.57079632679'
p469
(lp470
sS'206 48 1.57079632679'
p471
(lp472
sS'375 421 1.57079632679'
p473
(lp474
sS'211 583 0.0'
p475
(lp476
sS'48 419 1.57079632679'
p477
(lp478
sS'263 315 1.57079632679'
p479
(lp480
sS'55 552 0.0'
p481
(lp482
sS'679 359 1.57079632679'
p483
(lp484
sS'476 290 1.57079632679'
p485
(lp486
sS'384 415 0.0'
p487
(lp488
sS'63 427 1.57079632679'
p489
(lp490
sS'545 455 1.57079632679'
p491
(lp492
sS'392 336 1.57079632679'
p493
(lp494
sS'429 293 0.0'
p495
(lp496
sS'225 298 0.0'
p497
(lp498
sS'614 727 0.0'
p499
(lp500
sS'516 434 0.0'
p501
(lp502
sS'436 691 0.0'
p503
(lp504
sS'304 333 0.0'
p505
(lp506
sS'145 247 1.57079632679'
p507
(lp508
sS'511 550 0.0'
p509
(lp510
sS'160 540 1.57079632679'
p511
(lp512
sS'444 285 1.57079632679'
p513
(lp514
sS'532 353 0.0'
p515
(lp516
sS'286 350 0.0'
p517
(lp518
sS'289 365 0.0'
p519
(lp520
sS'381 689 0.0'
p521
(lp522
sS'572 154 1.57079632679'
p523
(lp524
sS'674 65 1.57079632679'
p525
(lp526
sS'177 440 1.57079632679'
p527
(lp528
sS'271 177 1.57079632679'
p529
(lp530
sS'69 464 1.57079632679'
p531
(lp532
sS'374 310 1.57079632679'
p533
(lp534
sS'620 278 0.0'
p535
(lp536
sS'332 77 1.57079632679'
p537
(lp538
sS'61 442 1.57079632679'
p539
(lp540
sS'678 597 0.0'
p541
(lp542
sS'388 272 1.57079632679'
p543
(lp544
sS'195 267 1.57079632679'
p545
(lp546
sS'659 49 0.0'
p547
(lp548
sS'368 624 0.0'
p549
(lp550
sS'644 111 1.57079632679'
p551
(lp552
sS'547 473 1.57079632679'
p553
(lp554
sS'697 731 1.57079632679'
p555
(lp556
sS'55 137 1.57079632679'
p557
(lp558
sS'365 453 0.0'
p559
(lp560
sS'443 422 0.0'
p561
(lp562
sS'278 344 1.57079632679'
p563
(lp564
sS'124 704 0.0'
p565
(lp566
sS'374 340 1.57079632679'
p567
(lp568
sS'572 400 0.0'
p569
(lp570
sS'414 699 1.57079632679'
p571
(lp572
sS'386 91 0.0'
p573
(lp574
sS'118 540 0.0'
p575
(lp576
sS'274 367 1.57079632679'
p577
(lp578
sS'571 296 0.0'
p579
(lp580
sS'607 730 1.57079632679'
p581
(lp582
sS'70 597 1.57079632679'
p583
(lp584
sS'210 495 0.0'
p585
(lp586
sS'78 163 0.0'
p587
(lp588
sS'190 203 0.0'
p589
(lp590
sS'268 84 0.0'
p591
(lp592
sS'403 405 0.0'
p593
(lp594
sS'623 499 0.0'
p595
(lp596
sS'53 57 0.0'
p597
(lp598
sS'186 252 0.0'
p599
(lp600
sS'403 287 0.0'
p601
(lp602
sS'240 713 1.57079632679'
p603
(lp604
sS'525 376 1.57079632679'
p605
(lp606
sS'85 722 1.57079632679'
p607
(lp608
sS'421 81 1.57079632679'
p609
(lp610
sS'416 728 1.57079632679'
p611
(lp612
sS'699 285 1.57079632679'
p613
(lp614
sS'348 305 1.57079632679'
p615
(lp616
sS'201 386 0.0'
p617
(lp618
sS'116 669 0.0'
p619
(lp620
sS'202 613 1.57079632679'
p621
(lp622
sS'146 521 1.57079632679'
p623
(lp624
sS'491 162 1.57079632679'
p625
(lp626
sS'321 163 1.57079632679'
p627
(lp628
sS'284 133 0.0'
p629
(lp630
sS'538 515 1.57079632679'
p631
(lp632
sS'178 520 0.0'
p633
(lp634
sS'286 335 1.57079632679'
p635
(lp636
sS'78 688 0.0'
p637
(lp638
sS'144 461 1.57079632679'
p639
(lp640
sS'257 121 0.0'
p641
(lp642
sS'353 387 0.0'
p643
(lp644
sS'97 627 1.57079632679'
p645
(lp646
sS'248 405 0.0'
p647
(lp648
sS'239 477 1.57079632679'
p649
(lp650
sS'617 580 0.0'
p651
(lp652
sS'616 135 1.57079632679'
p653
(lp654
sS'265 158 0.0'
p655
(lp656
sS'617 61 1.57079632679'
p657
(lp658
sS'420 364 1.57079632679'
p659
(lp660
sS'681 532 1.57079632679'
p661
(lp662
sS'630 510 1.57079632679'
p663
(lp664
sS'687 623 0.0'
p665
(lp666
sS'414 417 0.0'
p667
(lp668
sS'82 665 1.57079632679'
p669
(lp670
sS'673 626 1.57079632679'
p671
(lp672
sS'546 703 0.0'
p673
(lp674
sS'61 46 1.57079632679'
p675
(lp676
sS'156 486 0.0'
p677
(lp678
sS'132 451 1.57079632679'
p679
(lp680
sS'252 718 0.0'
p681
(lp682
sS'330 179 1.57079632679'
p683
(lp684
sS'139 111 1.57079632679'
p685
(lp686
sS'630 90 0.0'
p687
(lp688
sS'661 607 0.0'
p689
(lp690
sS'403 558 0.0'
p691
(lp692
sS'182 545 0.0'
p693
(lp694
sS'65 470 1.57079632679'
p695
(lp696
sS'65 109 1.57079632679'
p697
(lp698
sS'616 631 1.57079632679'
p699
(lp700
sS'385 288 1.57079632679'
p701
(lp702
sS'365 383 0.0'
p703
(lp704
sS'700 127 0.0'
p705
(lp706
sS'413 661 0.0'
p707
(lp708
sS'47 80 0.0'
p709
(lp710
sS'201 594 0.0'
p711
(lp712
sS'108 115 1.57079632679'
p713
(lp714
sS'622 519 0.0'
p715
(lp716
sS'98 234 1.57079632679'
p717
(lp718
sS'545 572 0.0'
p719
(lp720
sS'613 503 0.0'
p721
(lp722
sS'613 414 0.0'
p723
(lp724
sS'261 279 0.0'
p725
(lp726
sS'624 408 0.0'
p727
(lp728
sS'106 674 1.57079632679'
p729
(lp730
sS'603 101 0.0'
p731
(lp732
sS'144 577 0.0'
p733
(lp734
sS'378 622 1.57079632679'
p735
(lp736
sS'568 360 1.57079632679'
p737
(lp738
sS'47 655 0.0'
p739
(lp740
sS'359 486 1.57079632679'
p741
(lp742
sS'188 489 0.0'
p743
(lp744
sS'658 727 1.57079632679'
p745
(lp746
sS'248 285 0.0'
p747
(lp748
sS'215 442 1.57079632679'
p749
(lp750
sS'611 594 0.0'
p751
(lp752
sS'393 590 0.0'
p753
(lp754
sS'85 708 0.0'
p755
(lp756
sS'565 323 1.57079632679'
p757
(lp758
sS'409 439 0.0'
p759
(lp760
sS'186 62 0.0'
p761
(lp762
sS'699 176 0.0'
p763
(lp764
sS'105 108 1.57079632679'
p765
(lp766
sS'194 435 0.0'
p767
(lp768
sS'596 80 0.0'
p769
(lp770
sS'406 50 1.57079632679'
p771
(lp772
sS'414 111 0.0'
p773
(lp774
sS'220 458 1.57079632679'
p775
(lp776
sS'561 386 0.0'
p777
(lp778
sS'545 490 1.57079632679'
p779
(lp780
sS'140 692 1.57079632679'
p781
(lp782
sS'214 576 0.0'
p783
(lp784
sS'204 233 0.0'
p785
(lp786
sS'235 492 0.0'
p787
(lp788
sS'386 367 0.0'
p789
(lp790
sS'211 150 0.0'
p791
(lp792
sS'188 301 1.57079632679'
p793
(lp794
sS'148 280 1.57079632679'
p795
(lp796
sS'207 510 1.57079632679'
p797
(lp798
sS'580 370 0.0'
p799
(lp800
sS'208 413 0.0'
p801
(lp802
sS'687 415 1.57079632679'
p803
(lp804
sS'458 149 0.0'
p805
(lp806
sS'594 606 0.0'
p807
(lp808
sS'50 456 0.0'
p809
(lp810
sS'79 704 0.0'
p811
(lp812
sS'548 557 0.0'
p813
(lp814
sS'515 470 1.57079632679'
p815
(lp816
sS'474 564 0.0'
p817
(lp818
sS'175 424 1.57079632679'
p819
(lp820
sS'249 425 0.0'
p821
(lp822
sS'363 421 0.0'
p823
(lp824
sS'621 51 0.0'
p825
(lp826
sS'77 172 1.57079632679'
p827
(lp828
sS'624 94 0.0'
p829
(lp830
sS'607 688 1.57079632679'
p831
(lp832
sS'249 76 0.0'
p833
(lp834
sS'268 730 1.57079632679'
p835
(lp836
sS'180 244 1.57079632679'
p837
(lp838
sS'560 709 0.0'
p839
(lp840
sS'160 44 0.0'
p841
(lp842
sS'186 458 1.57079632679'
p843
(lp844
sS'633 108 0.0'
p845
(lp846
sS'396 56 1.57079632679'
p847
(lp848
sS'254 350 1.57079632679'
p849
(lp850
sS'558 53 1.57079632679'
p851
(lp852
sS'415 510 0.0'
p853
(lp854
sS'249 390 0.0'
p855
(lp856
sS'635 501 0.0'
p857
(lp858
sS'383 604 1.57079632679'
p859
(lp860
sS'684 404 1.57079632679'
p861
(lp862
sS'395 418 1.57079632679'
p863
(lp864
sS'440 579 1.57079632679'
p865
(lp866
sS'412 397 1.57079632679'
p867
(lp868
sS'421 118 1.57079632679'
p869
(lp870
sS'629 603 1.57079632679'
p871
(lp872
sS'657 477 0.0'
p873
(lp874
sS'624 58 1.57079632679'
p875
(lp876
sS'452 490 0.0'
p877
(lp878
sS'247 133 1.57079632679'
p879
(lp880
sS'577 289 0.0'
p881
(lp882
sS'220 205 1.57079632679'
p883
(lp884
sS'630 487 0.0'
p885
(lp886
sS'554 136 1.57079632679'
p887
(lp888
sS'398 660 0.0'
p889
(lp890
sS'242 524 0.0'
p891
(lp892
sS'94 63 0.0'
p893
(lp894
sS'373 330 1.57079632679'
p895
(lp896
sS'256 508 1.57079632679'
p897
(lp898
sS'698 582 0.0'
p899
(lp900
sS'177 723 0.0'
p901
(lp902
sS'172 450 1.57079632679'
p903
(lp904
sS'139 447 1.57079632679'
p905
(lp906
sS'397 109 1.57079632679'
p907
(lp908
sS'67 155 1.57079632679'
p909
(lp910
sS'385 305 1.57079632679'
p911
(lp912
sS'215 48 1.57079632679'
p913
(lp914
sS'369 349 0.0'
p915
(lp916
sS'401 667 1.57079632679'
p917
(lp918
sS'686 718 0.0'
p919
(lp920
sS'659 178 1.57079632679'
p921
(lp922
sS'431 459 0.0'
p923
(lp924
sS'345 180 1.57079632679'
p925
(lp926
sS'238 68 1.57079632679'
p927
(lp928
sS'588 288 0.0'
p929
(lp930
sS'165 408 0.0'
p931
(lp932
sS'611 100 0.0'
p933
(lp934
sS'55 438 0.0'
p935
(lp936
sS'48 52 0.0'
p937
(lp938
sS'59 510 0.0'
p939
(lp940
sS'160 556 0.0'
p941
(lp942
sS'562 97 0.0'
p943
(lp944
sS'215 311 0.0'
p945
(lp946
sS'136 272 1.57079632679'
p947
(lp948
sS'680 612 0.0'
p949
(lp950
sS'568 686 1.57079632679'
p951
(lp952
sS'99 674 1.57079632679'
p953
(lp954
sS'225 695 0.0'
p955
(lp956
sS'621 724 1.57079632679'
p957
(lp958
sS'657 599 1.57079632679'
p959
(lp960
sS'59 464 1.57079632679'
p961
(lp962
sS'452 568 0.0'
p963
(lp964
sS'565 135 1.57079632679'
p965
(lp966
sS'316 50 0.0'
p967
(lp968
sS'257 179 1.57079632679'
p969
(lp970
sS'658 71 1.57079632679'
p971
(lp972
sS'56 431 0.0'
p973
(lp974
sS'102 122 0.0'
p975
(lp976
sS'361 398 1.57079632679'
p977
(lp978
sS'502 435 1.57079632679'
p979
(lp980
sS'462 642 0.0'
p981
(lp982
sS'253 539 0.0'
p983
(lp984
sS'495 120 0.0'
p985
(lp986
sS'183 87 0.0'
p987
(lp988
sS'154 563 1.57079632679'
p989
(lp990
sS'462 64 0.0'
p991
(lp992
sS'703 335 0.0'
p993
(lp994
sS'590 97 1.57079632679'
p995
(lp996
sS'160 576 1.57079632679'
p997
(lp998
sS'290 319 0.0'
p999
(lp1000
sS'160 526 0.0'
p1001
(lp1002
sS'691 131 1.57079632679'
p1003
(lp1004
sS'249 674 1.57079632679'
p1005
(lp1006
sS'558 576 0.0'
p1007
(lp1008
sS'259 399 1.57079632679'
p1009
(lp1010
sS'665 140 1.57079632679'
p1011
(lp1012
sS'641 597 1.57079632679'
p1013
(lp1014
sS'196 727 0.0'
p1015
(lp1016
sS'224 361 0.0'
p1017
(lp1018
sS'585 67 0.0'
p1019
(lp1020
sS'510 155 1.57079632679'
p1021
(lp1022
sS'141 670 0.0'
p1023
(lp1024
sS'186 96 0.0'
p1025
(lp1026
sS'496 440 1.57079632679'
p1027
(lp1028
sS'549 348 0.0'
p1029
(lp1030
sS'440 43 0.0'
p1031
(lp1032
sS'665 400 0.0'
p1033
(lp1034
sS'677 142 0.0'
p1035
(lp1036
sS'687 590 0.0'
p1037
(lp1038
sS'143 213 1.57079632679'
p1039
(lp1040
sS'89 186 1.57079632679'
p1041
(lp1042
sS'169 402 0.0'
p1043
(lp1044
sS'89 698 0.0'
p1045
(lp1046
sS'564 370 1.57079632679'
p1047
(lp1048
sS'436 454 1.57079632679'
p1049
(lp1050
sS'251 460 1.57079632679'
p1051
(lp1052
sS'168 51 1.57079632679'
p1053
(lp1054
sS'698 689 1.57079632679'
p1055
(lp1056
sS'615 402 0.0'
p1057
(lp1058
sS'577 612 0.0'
p1059
(lp1060
sS'321 386 1.57079632679'
p1061
(lp1062
sS'196 300 1.57079632679'
p1063
(lp1064
sS'214 335 1.57079632679'
p1065
(lp1066
sS'86 445 0.0'
p1067
(lp1068
sS'164 424 0.0'
p1069
(lp1070
sS'574 717 1.57079632679'
p1071
(lp1072
sS'555 558 1.57079632679'
p1073
(lp1074
sS'193 220 1.57079632679'
p1075
(lp1076
sS'149 665 1.57079632679'
p1077
(lp1078
sS'93 109 0.0'
p1079
(lp1080
sS'671 612 1.57079632679'
p1081
(lp1082
sS'489 174 1.57079632679'
p1083
(lp1084
sS'488 148 0.0'
p1085
(lp1086
sS'362 564 1.57079632679'
p1087
(lp1088
sS'180 66 1.57079632679'
p1089
(lp1090
sS'365 362 0.0'
p1091
(lp1092
sS'303 302 0.0'
p1093
(lp1094
sS'432 274 0.0'
p1095
(lp1096
sS'101 444 0.0'
p1097
(lp1098
sS'223 52 1.57079632679'
p1099
(lp1100
sS'121 695 1.57079632679'
p1101
(lp1102
sS'591 75 1.57079632679'
p1103
(lp1104
sS'455 694 1.57079632679'
p1105
(lp1106
sS'669 544 0.0'
p1107
(lp1108
sS'100 607 1.57079632679'
p1109
(lp1110
sS'65 91 0.0'
p1111
(lp1112
sS'479 309 1.57079632679'
p1113
(lp1114
sS'243 583 0.0'
p1115
(lp1116
sS'245 384 0.0'
p1117
(lp1118
sS'172 62 0.0'
p1119
(lp1120
sS'602 127 1.57079632679'
p1121
(lp1122
sS'269 341 1.57079632679'
p1123
(lp1124
sS'579 729 1.57079632679'
p1125
(lp1126
sS'265 406 0.0'
p1127
(lp1128
sS'197 189 0.0'
p1129
(lp1130
sS'235 534 0.0'
p1131
(lp1132
sS'472 673 1.57079632679'
p1133
(lp1134
sS'406 630 0.0'
p1135
(lp1136
sS'251 579 1.57079632679'
p1137
(lp1138
sS'102 577 0.0'
p1139
(lp1140
sS'236 554 0.0'
p1141
(lp1142
sS'604 283 1.57079632679'
p1143
(lp1144
sS'141 586 0.0'
p1145
(lp1146
sS'49 185 0.0'
p1147
(lp1148
sS'404 305 0.0'
p1149
(lp1150
sS'613 349 0.0'
p1151
(lp1152
sS'344 291 1.57079632679'
p1153
(lp1154
sS'375 302 0.0'
p1155
(lp1156
sS'557 536 1.57079632679'
p1157
(lp1158
sS'105 89 1.57079632679'
p1159
(lp1160
sS'92 119 1.57079632679'
p1161
(lp1162
sS'258 460 0.0'
p1163
(lp1164
sS'169 419 1.57079632679'
p1165
(lp1166
sS'331 130 1.57079632679'
p1167
(lp1168
sS'520 176 0.0'
p1169
(lp1170
sS'548 155 0.0'
p1171
(lp1172
sS'236 399 0.0'
p1173
(lp1174
sS'77 283 0.0'
p1175
(lp1176
sS'361 622 1.57079632679'
p1177
(lp1178
sS'436 565 1.57079632679'
p1179
(lp1180
sS'335 145 1.57079632679'
p1181
(lp1182
sS'593 670 1.57079632679'
p1183
(lp1184
sS'589 661 0.0'
p1185
(lp1186
sS'456 469 0.0'
p1187
(lp1188
sS'97 52 1.57079632679'
p1189
(lp1190
sS'687 304 1.57079632679'
p1191
(lp1192
sS'118 248 1.57079632679'
p1193
(lp1194
sS'617 119 1.57079632679'
p1195
(lp1196
sS'282 171 0.0'
p1197
(lp1198
sS'406 419 1.57079632679'
p1199
(lp1200
sS'360 644 1.57079632679'
p1201
(lp1202
sS'81 77 0.0'
p1203
(lp1204
sS'508 129 0.0'
p1205
(lp1206
sS'521 587 1.57079632679'
p1207
(lp1208
sS'609 662 1.57079632679'
p1209
(lp1210
sS'267 607 1.57079632679'
p1211
(lp1212
sS'70 443 1.57079632679'
p1213
(lp1214
sS'229 704 1.57079632679'
p1215
(lp1216
sS'673 136 0.0'
p1217
(lp1218
sS'159 419 1.57079632679'
p1219
(lp1220
sS'702 276 1.57079632679'
p1221
(lp1222
sS'379 100 1.57079632679'
p1223
(lp1224
sS'478 274 0.0'
p1225
(lp1226
sS'522 570 0.0'
p1227
(lp1228
sS'703 393 0.0'
p1229
(lp1230
sS'651 113 1.57079632679'
p1231
(lp1232
sS'52 487 0.0'
p1233
(lp1234
sS'530 323 0.0'
p1235
(lp1236
sS'105 165 1.57079632679'
p1237
(lp1238
sS'256 270 1.57079632679'
p1239
(lp1240
sS'567 106 0.0'
p1241
(lp1242
sS'157 252 1.57079632679'
p1243
(lp1244
sS'382 146 1.57079632679'
p1245
(lp1246
sS'556 45 1.57079632679'
p1247
(lp1248
sS'631 285 0.0'
p1249
(lp1250
sS'647 82 1.57079632679'
p1251
(lp1252
sS'213 526 1.57079632679'
p1253
(lp1254
sS'385 380 0.0'
p1255
(lp1256
sS'495 580 1.57079632679'
p1257
(lp1258
sS'132 223 1.57079632679'
p1259
(lp1260
sS'408 490 0.0'
p1261
(lp1262
sS'67 148 0.0'
p1263
(lp1264
sS'191 569 0.0'
p1265
(lp1266
sS'456 287 0.0'
p1267
(lp1268
sS'565 351 0.0'
p1269
(lp1270
sS'423 579 1.57079632679'
p1271
(lp1272
sS'206 697 1.57079632679'
p1273
(lp1274
sS'257 649 0.0'
p1275
(lp1276
sS'436 419 0.0'
p1277
(lp1278
sS'688 578 1.57079632679'
p1279
(lp1280
sS'660 375 0.0'
p1281
(lp1282
sS'92 404 1.57079632679'
p1283
(lp1284
sS'511 537 1.57079632679'
p1285
(lp1286
sS'222 602 1.57079632679'
p1287
(lp1288
sS'415 284 1.57079632679'
p1289
(lp1290
sS'83 298 0.0'
p1291
(lp1292
sS'289 391 0.0'
p1293
(lp1294
sS'469 107 1.57079632679'
p1295
(lp1296
sS'452 730 1.57079632679'
p1297
(lp1298
sS'180 494 1.57079632679'
p1299
(lp1300
sS'186 564 1.57079632679'
p1301
(lp1302
sS'439 321 0.0'
p1303
(lp1304
sS'266 428 1.57079632679'
p1305
(lp1306
sS'107 667 0.0'
p1307
(lp1308
sS'235 336 1.57079632679'
p1309
(lp1310
sS'217 419 1.57079632679'
p1311
(lp1312
sS'100 436 1.57079632679'
p1313
(lp1314
sS'143 546 1.57079632679'
p1315
(lp1316
sS'418 125 0.0'
p1317
(lp1318
sS'171 433 0.0'
p1319
(lp1320
sS'428 49 1.57079632679'
p1321
(lp1322
sS'498 635 0.0'
p1323
(lp1324
sS'199 571 0.0'
p1325
(lp1326
sS'229 160 0.0'
p1327
(lp1328
sS'553 367 1.57079632679'
p1329
(lp1330
sS'205 304 1.57079632679'
p1331
(lp1332
sS'89 573 1.57079632679'
p1333
(lp1334
sS'411 715 0.0'
p1335
(lp1336
sS'266 634 0.0'
p1337
(lp1338
sS'112 74 1.57079632679'
p1339
(lp1340
sS'182 205 0.0'
p1341
(lp1342
sS'582 128 0.0'
p1343
(lp1344
sS'590 582 1.57079632679'
p1345
(lp1346
sS'114 88 1.57079632679'
p1347
(lp1348
sS'413 370 1.57079632679'
p1349
(lp1350
sS'583 403 0.0'
p1351
(lp1352
sS'537 468 1.57079632679'
p1353
(lp1354
sS'268 295 1.57079632679'
p1355
(lp1356
sS'82 439 1.57079632679'
p1357
(lp1358
sS'263 720 1.57079632679'
p1359
(lp1360
sS'703 622 0.0'
p1361
(lp1362
sS'375 106 0.0'
p1363
(lp1364
sS'160 507 1.57079632679'
p1365
(lp1366
sS'635 611 0.0'
p1367
(lp1368
sS'537 415 1.57079632679'
p1369
(lp1370
sS'221 316 0.0'
p1371
(lp1372
sS'676 301 0.0'
p1373
(lp1374
sS'521 148 0.0'
p1375
(lp1376
sS'131 259 1.57079632679'
p1377
(lp1378
sS'696 64 0.0'
p1379
(lp1380
sS'50 517 1.57079632679'
p1381
(lp1382
sS'407 586 0.0'
p1383
(lp1384
sS'509 435 0.0'
p1385
(lp1386
sS'494 431 0.0'
p1387
(lp1388
sS'173 245 1.57079632679'
p1389
(lp1390
sS'674 690 0.0'
p1391
(lp1392
sS'131 107 1.57079632679'
p1393
(lp1394
sS'605 376 0.0'
p1395
(lp1396
sS'499 170 0.0'
p1397
(lp1398
sS'491 457 1.57079632679'
p1399
(lp1400
sS'497 447 0.0'
p1401
(lp1402
sS'312 349 1.57079632679'
p1403
(lp1404
sS'199 374 0.0'
p1405
(lp1406
sS'467 459 0.0'
p1407
(lp1408
sS'631 429 1.57079632679'
p1409
(lp1410
sS'103 722 0.0'
p1411
(lp1412
sS'449 339 1.57079632679'
p1413
(lp1414
sS'317 273 1.57079632679'
p1415
(lp1416
sS'126 558 1.57079632679'
p1417
(lp1418
sS'295 281 0.0'
p1419
(lp1420
sS'331 171 0.0'
p1421
(lp1422
sS'167 440 1.57079632679'
p1423
(lp1424
sS'402 353 1.57079632679'
p1425
(lp1426
sS'116 108 1.57079632679'
p1427
(lp1428
sS'336 293 0.0'
p1429
(lp1430
sS'590 343 1.57079632679'
p1431
(lp1432
sS'657 561 1.57079632679'
p1433
(lp1434
sS'217 381 1.57079632679'
p1435
(lp1436
sS'557 606 0.0'
p1437
(lp1438
sS'364 408 1.57079632679'
p1439
(lp1440
sS'514 460 1.57079632679'
p1441
(lp1442
sS'189 510 1.57079632679'
p1443
(lp1444
sS'430 684 0.0'
p1445
(lp1446
sS'254 343 0.0'
p1447
(lp1448
sS'51 466 1.57079632679'
p1449
(lp1450
sS'554 427 0.0'
p1451
(lp1452
sS'174 214 0.0'
p1453
(lp1454
sS'243 375 1.57079632679'
p1455
(lp1456
sS'193 251 1.57079632679'
p1457
(lp1458
sS'209 446 0.0'
p1459
(lp1460
sS'78 712 0.0'
p1461
(lp1462
sS'545 515 0.0'
p1463
(lp1464
sS'167 715 1.57079632679'
p1465
(lp1466
sS'685 367 0.0'
p1467
(lp1468
sS'287 343 0.0'
p1469
(lp1470
sS'120 147 1.57079632679'
p1471
(lp1472
sS'552 383 1.57079632679'
p1473
(lp1474
sS'150 242 1.57079632679'
p1475
(lp1476
sS'310 326 0.0'
p1477
(lp1478
sS'267 370 0.0'
p1479
(lp1480
sS'73 412 1.57079632679'
p1481
(lp1482
sS'399 99 1.57079632679'
p1483
(lp1484
sS'374 131 1.57079632679'
p1485
(lp1486
sS'673 682 0.0'
p1487
(lp1488
sS'454 588 0.0'
p1489
(lp1490
sS'394 65 0.0'
p1491
(lp1492
sS'76 302 0.0'
p1493
(lp1494
sS'460 408 1.57079632679'
p1495
(lp1496
sS'592 126 0.0'
p1497
(lp1498
sS'64 527 0.0'
p1499
(lp1500
sS'430 722 0.0'
p1501
(lp1502
sS'619 481 0.0'
p1503
(lp1504
sS'384 122 0.0'
p1505
(lp1506
sS'623 80 0.0'
p1507
(lp1508
sS'261 491 1.57079632679'
p1509
(lp1510
sS'95 71 1.57079632679'
p1511
(lp1512
sS'152 605 0.0'
p1513
(lp1514
sS'592 50 0.0'
p1515
(lp1516
sS'656 498 0.0'
p1517
(lp1518
sS'602 290 1.57079632679'
p1519
(lp1520
sS'111 693 1.57079632679'
p1521
(lp1522
sS'584 588 1.57079632679'
p1523
(lp1524
sS'600 391 1.57079632679'
p1525
(lp1526
sS'358 323 1.57079632679'
p1527
(lp1528
sS'598 708 1.57079632679'
p1529
(lp1530
sS'649 576 0.0'
p1531
(lp1532
sS'309 145 1.57079632679'
p1533
(lp1534
sS'606 109 0.0'
p1535
(lp1536
sS'642 172 1.57079632679'
p1537
(lp1538
sS'466 655 1.57079632679'
p1539
(lp1540
sS'664 537 0.0'
p1541
(lp1542
sS'107 620 1.57079632679'
p1543
(lp1544
sS'220 522 0.0'
p1545
(lp1546
sS'586 270 0.0'
p1547
(lp1548
sS'232 359 0.0'
p1549
(lp1550
sS'424 463 1.57079632679'
p1551
(lp1552
sS'547 621 0.0'
p1553
(lp1554
sS'235 156 0.0'
p1555
(lp1556
sS'703 418 0.0'
p1557
(lp1558
sS'196 544 1.57079632679'
p1559
(lp1560
sS'100 701 1.57079632679'
p1561
(lp1562
sS'78 56 0.0'
p1563
(lp1564
sS'241 563 0.0'
p1565
(lp1566
sS'690 279 1.57079632679'
p1567
(lp1568
sS'214 720 0.0'
p1569
(lp1570
sS'628 479 1.57079632679'
p1571
(lp1572
sS'257 97 1.57079632679'
p1573
(lp1574
sS'407 639 0.0'
p1575
(lp1576
sS'578 84 1.57079632679'
p1577
(lp1578
sS'666 171 1.57079632679'
p1579
(lp1580
sS'109 126 0.0'
p1581
(lp1582
sS'578 390 0.0'
p1583
(lp1584
sS'102 174 0.0'
p1585
(lp1586
sS'245 432 1.57079632679'
p1587
(lp1588
sS'594 593 0.0'
p1589
(lp1590
sS'640 287 0.0'
p1591
(lp1592
sS'644 513 0.0'
p1593
(lp1594
sS'442 123 1.57079632679'
p1595
(lp1596
sS'152 731 1.57079632679'
p1597
(lp1598
sS'482 643 1.57079632679'
p1599
(lp1600
sS'274 314 0.0'
p1601
(lp1602
sS'147 537 0.0'
p1603
(lp1604
sS'186 401 0.0'
p1605
(lp1606
sS'317 299 0.0'
p1607
(lp1608
sS'696 622 1.57079632679'
p1609
(lp1610
sS'244 294 0.0'
p1611
(lp1612
sS'204 187 1.57079632679'
p1613
(lp1614
sS'274 154 1.57079632679'
p1615
(lp1616
sS'137 723 0.0'
p1617
(lp1618
sS'352 158 0.0'
p1619
(lp1620
sS'502 91 0.0'
p1621
(lp1622
sS'567 729 0.0'
p1623
(lp1624
sS'598 418 1.57079632679'
p1625
(lp1626
sS'211 318 1.57079632679'
p1627
(lp1628
sS'543 336 1.57079632679'
p1629
(lp1630
sS'448 116 1.57079632679'
p1631
(lp1632
sS'49 292 0.0'
p1633
(lp1634
sS'232 573 1.57079632679'
p1635
(lp1636
sS'371 357 0.0'
p1637
(lp1638
sS'408 128 1.57079632679'
p1639
(lp1640
sS'101 248 0.0'
p1641
(lp1642
sS'379 358 0.0'
p1643
(lp1644
sS'494 564 0.0'
p1645
(lp1646
sS'50 559 1.57079632679'
p1647
(lp1648
sS'178 58 1.57079632679'
p1649
(lp1650
sS'653 95 1.57079632679'
p1651
(lp1652
sS'632 305 1.57079632679'
p1653
(lp1654
sS'699 381 1.57079632679'
p1655
(lp1656
sS'393 625 0.0'
p1657
(lp1658
sS'542 434 0.0'
p1659
(lp1660
sS'562 339 0.0'
p1661
(lp1662
sS'371 143 0.0'
p1663
(lp1664
sS'701 655 0.0'
p1665
(lp1666
sS'67 504 1.57079632679'
p1667
(lp1668
sS'271 76 0.0'
p1669
(lp1670
sS'203 130 1.57079632679'
p1671
(lp1672
sS'567 417 0.0'
p1673
(lp1674
sS'264 362 1.57079632679'
p1675
(lp1676
sS'136 606 0.0'
p1677
(lp1678
sS'332 324 1.57079632679'
p1679
(lp1680
sS'370 100 1.57079632679'
p1681
(lp1682
sS'53 299 0.0'
p1683
(lp1684
sS'435 85 1.57079632679'
p1685
(lp1686
sS'313 397 0.0'
p1687
(lp1688
sS'101 558 1.57079632679'
p1689
(lp1690
sS'596 678 1.57079632679'
p1691
(lp1692
sS'360 653 0.0'
p1693
(lp1694
sS'694 409 1.57079632679'
p1695
(lp1696
sS'245 114 1.57079632679'
p1697
(lp1698
sS'558 681 1.57079632679'
p1699
(lp1700
sS'211 173 1.57079632679'
p1701
(lp1702
sS'663 301 1.57079632679'
p1703
(lp1704
sS'155 299 0.0'
p1705
(lp1706
sS'261 681 0.0'
p1707
(lp1708
sS'241 546 0.0'
p1709
(lp1710
sS'205 678 0.0'
p1711
(lp1712
sS'424 493 1.57079632679'
p1713
(lp1714
sS'677 405 1.57079632679'
p1715
(lp1716
sS'697 598 0.0'
p1717
(lp1718
sS'354 68 0.0'
p1719
(lp1720
sS'79 579 1.57079632679'
p1721
(lp1722
sS'113 275 0.0'
p1723
(lp1724
sS'323 54 1.57079632679'
p1725
(lp1726
sS'566 50 0.0'
p1727
(lp1728
sS'52 161 0.0'
p1729
(lp1730
sS'51 172 1.57079632679'
p1731
(lp1732
sS'589 422 1.57079632679'
p1733
(lp1734
sS'467 722 0.0'
p1735
(lp1736
sS'122 457 0.0'
p1737
(lp1738
sS'470 130 1.57079632679'
p1739
(lp1740
sS'112 685 0.0'
p1741
(lp1742
sS'557 509 1.57079632679'
p1743
(lp1744
sS'348 320 0.0'
p1745
(lp1746
sS'218 683 0.0'
p1747
(lp1748
sS'135 697 1.57079632679'
p1749
(lp1750
sS'436 101 0.0'
p1751
(lp1752
sS'552 334 0.0'
p1753
(lp1754
sS'609 119 1.57079632679'
p1755
(lp1756
sS'584 46 0.0'
p1757
(lp1758
sS'339 284 1.57079632679'
p1759
(lp1760
sS'460 158 1.57079632679'
p1761
(lp1762
sS'359 506 1.57079632679'
p1763
(lp1764
sS'545 729 1.57079632679'
p1765
(lp1766
sS'677 422 0.0'
p1767
(lp1768
sS'695 590 1.57079632679'
p1769
(lp1770
sS'619 432 0.0'
p1771
(lp1772
sS'166 485 1.57079632679'
p1773
(lp1774
sS'122 204 0.0'
p1775
(lp1776
sS'370 594 0.0'
p1777
(lp1778
sS'190 498 1.57079632679'
p1779
(lp1780
sS'186 432 0.0'
p1781
(lp1782
sS'504 587 1.57079632679'
p1783
(lp1784
sS'601 321 1.57079632679'
p1785
(lp1786
sS'72 293 0.0'
p1787
(lp1788
sS'362 144 1.57079632679'
p1789
(lp1790
sS'197 531 0.0'
p1791
(lp1792
sS'563 59 0.0'
p1793
(lp1794
sS'548 601 0.0'
p1795
(lp1796
sS'136 570 0.0'
p1797
(lp1798
sS'172 514 0.0'
p1799
(lp1800
sS'601 432 1.57079632679'
p1801
(lp1802
sS'172 490 0.0'
p1803
(lp1804
sS'346 331 1.57079632679'
p1805
(lp1806
sS'477 124 0.0'
p1807
(lp1808
sS'453 717 1.57079632679'
p1809
(lp1810
sS'442 503 0.0'
p1811
(lp1812
sS'564 126 0.0'
p1813
(lp1814
sS'72 183 1.57079632679'
p1815
(lp1816
sS'445 408 0.0'
p1817
(lp1818
sS'52 644 1.57079632679'
p1819
(lp1820
sS'298 343 0.0'
p1821
(lp1822
sS'209 244 1.57079632679'
p1823
(lp1824
sS'97 256 0.0'
p1825
(lp1826
sS'213 162 1.57079632679'
p1827
(lp1828
sS'702 360 0.0'
p1829
(lp1830
sS'611 523 1.57079632679'
p1831
(lp1832
sS'616 422 1.57079632679'
p1833
(lp1834
sS'601 116 1.57079632679'
p1835
(lp1836
sS'462 87 1.57079632679'
p1837
(lp1838
sS'648 414 1.57079632679'
p1839
(lp1840
sS'416 383 0.0'
p1841
(lp1842
sS'259 423 1.57079632679'
p1843
(lp1844
sS'256 326 1.57079632679'
p1845
(lp1846
sS'116 448 1.57079632679'
p1847
(lp1848
sS'518 424 1.57079632679'
p1849
(lp1850
sS'546 404 0.0'
p1851
(lp1852
sS'484 123 1.57079632679'
p1853
(lp1854
sS'458 347 1.57079632679'
p1855
(lp1856
sS'404 66 0.0'
p1857
(lp1858
sS'554 357 1.57079632679'
p1859
(lp1860
sS'496 643 1.57079632679'
p1861
(lp1862
sS'529 163 0.0'
p1863
(lp1864
sS'376 321 0.0'
p1865
(lp1866
sS'670 356 0.0'
p1867
(lp1868
sS'556 70 0.0'
p1869
(lp1870
sS'475 357 1.57079632679'
p1871
(lp1872
sS'271 356 1.57079632679'
p1873
(lp1874
sS'411 501 1.57079632679'
p1875
(lp1876
sS'229 81 0.0'
p1877
(lp1878
sS'149 724 0.0'
p1879
(lp1880
sS'457 439 0.0'
p1881
(lp1882
sS'198 711 1.57079632679'
p1883
(lp1884
sS'512 576 1.57079632679'
p1885
(lp1886
sS'326 334 0.0'
p1887
(lp1888
sS'133 139 0.0'
p1889
(lp1890
sS'384 138 1.57079632679'
p1891
(lp1892
sS'548 324 0.0'
p1893
(lp1894
sS'370 470 1.57079632679'
p1895
(lp1896
sS'186 480 0.0'
p1897
(lp1898
sS'470 149 0.0'
p1899
(lp1900
sS'681 45 1.57079632679'
p1901
(lp1902
sS'427 73 0.0'
p1903
(lp1904
sS'440 589 0.0'
p1905
(lp1906
sS'242 502 0.0'
p1907
(lp1908
sS'573 355 0.0'
p1909
(lp1910
sS'121 588 1.57079632679'
p1911
(lp1912
sS'308 162 1.57079632679'
p1913
(lp1914
sS'90 47 1.57079632679'
p1915
(lp1916
sS'596 354 0.0'
p1917
(lp1918
sS'633 99 0.0'
p1919
(lp1920
sS'78 429 1.57079632679'
p1921
(lp1922
sS'553 164 1.57079632679'
p1923
(lp1924
sS'408 339 0.0'
p1925
(lp1926
sS'209 289 0.0'
p1927
(lp1928
sS'236 126 1.57079632679'
p1929
(lp1930
sS'382 402 1.57079632679'
p1931
(lp1932
sS'489 576 1.57079632679'
p1933
(lp1934
sS'686 424 1.57079632679'
p1935
(lp1936
sS'437 479 0.0'
p1937
(lp1938
sS'587 312 0.0'
p1939
(lp1940
sS'468 331 0.0'
p1941
(lp1942
sS'370 415 1.57079632679'
p1943
(lp1944
sS'681 378 0.0'
p1945
(lp1946
sS'219 136 0.0'
p1947
(lp1948
sS'392 180 1.57079632679'
p1949
(lp1950
sS'89 76 0.0'
p1951
(lp1952
sS'209 85 0.0'
p1953
(lp1954
sS'131 233 0.0'
p1955
(lp1956
sS'65 304 1.57079632679'
p1957
(lp1958
sS'264 505 0.0'
p1959
(lp1960
sS'99 297 1.57079632679'
p1961
(lp1962
sS'545 354 0.0'
p1963
(lp1964
sS'115 119 1.57079632679'
p1965
(lp1966
sS'536 450 0.0'
p1967
(lp1968
sS'267 553 0.0'
p1969
(lp1970
sS'556 397 1.57079632679'
p1971
(lp1972
sS'261 627 1.57079632679'
p1973
(lp1974
sS'182 424 1.57079632679'
p1975
(lp1976
sS'431 471 1.57079632679'
p1977
(lp1978
sS'77 727 0.0'
p1979
(lp1980
sS'70 100 1.57079632679'
p1981
(lp1982
sS'439 443 0.0'
p1983
(lp1984
sS'547 142 1.57079632679'
p1985
(lp1986
sS'221 469 1.57079632679'
p1987
(lp1988
sS'84 674 1.57079632679'
p1989
(lp1990
sS'114 717 0.0'
p1991
(lp1992
sS'495 420 0.0'
p1993
(lp1994
sS'511 411 1.57079632679'
p1995
(lp1996
sS'462 294 0.0'
p1997
(lp1998
sS'472 141 1.57079632679'
p1999
(lp2000
sS'555 565 1.57079632679'
p2001
(lp2002
sS'74 87 1.57079632679'
p2003
(lp2004
sS'358 131 1.57079632679'
p2005
(lp2006
sS'129 575 0.0'
p2007
(lp2008
sS'558 345 1.57079632679'
p2009
(lp2010
sS'641 574 1.57079632679'
p2011
(lp2012
sS'180 305 0.0'
p2013
(lp2014
sS'636 416 1.57079632679'
p2015
(lp2016
sS'300 153 1.57079632679'
p2017
(lp2018
sS'596 298 1.57079632679'
p2019
(lp2020
sS'83 587 1.57079632679'
p2021
(lp2022
sS'357 295 1.57079632679'
p2023
(lp2024
sS'89 598 0.0'
p2025
(lp2026
sS'284 283 1.57079632679'
p2027
(lp2028
sS'548 391 0.0'
p2029
(lp2030
sS'457 418 0.0'
p2031
(lp2032
sS'381 372 0.0'
p2033
(lp2034
sS'97 279 1.57079632679'
p2035
(lp2036
sS'208 263 0.0'
p2037
(lp2038
sS'231 720 0.0'
p2039
(lp2040
sS'543 178 1.57079632679'
p2041
(lp2042
sS'134 676 0.0'
p2043
(lp2044
sS'485 113 0.0'
p2045
(lp2046
sS'478 412 1.57079632679'
p2047
(lp2048
sS'126 219 0.0'
p2049
(lp2050
sS'191 70 1.57079632679'
p2051
(lp2052
sS'490 663 0.0'
p2053
(lp2054
sS'107 432 1.57079632679'
p2055
(lp2056
sS'660 285 1.57079632679'
p2057
(lp2058
sS'416 291 0.0'
p2059
(lp2060
sS'699 544 1.57079632679'
p2061
(lp2062
sS'363 74 0.0'
p2063
(lp2064
sS'614 623 1.57079632679'
p2065
(lp2066
sS'672 179 1.57079632679'
p2067
(lp2068
sS'480 422 0.0'
p2069
(lp2070
sS'436 345 1.57079632679'
p2071
(lp2072
sS'392 121 1.57079632679'
p2073
(lp2074
sS'136 545 1.57079632679'
p2075
(lp2076
sS'116 296 0.0'
p2077
(lp2078
sS'384 105 1.57079632679'
p2079
(lp2080
sS'451 686 0.0'
p2081
(lp2082
sS'602 701 1.57079632679'
p2083
(lp2084
sS'465 125 1.57079632679'
p2085
(lp2086
sS'103 693 0.0'
p2087
(lp2088
sS'615 616 1.57079632679'
p2089
(lp2090
sS'345 342 0.0'
p2091
(lp2092
sS'222 398 0.0'
p2093
(lp2094
sS'184 196 0.0'
p2095
(lp2096
sS'84 406 0.0'
p2097
(lp2098
sS'49 567 0.0'
p2099
(lp2100
sS'212 328 0.0'
p2101
(lp2102
sS'255 699 0.0'
p2103
(lp2104
sS'150 593 0.0'
p2105
(lp2106
sS'246 536 0.0'
p2107
(lp2108
sS'610 585 1.57079632679'
p2109
(lp2110
sS'483 661 1.57079632679'
p2111
(lp2112
sS'87 97 0.0'
p2113
(lp2114
sS'557 470 0.0'
p2115
(lp2116
sS'164 500 0.0'
p2117
(lp2118
sS'682 551 1.57079632679'
p2119
(lp2120
sS'52 538 1.57079632679'
p2121
(lp2122
sS'529 523 0.0'
p2123
(lp2124
sS'479 590 1.57079632679'
p2125
(lp2126
sS'606 423 1.57079632679'
p2127
(lp2128
sS'546 482 0.0'
p2129
(lp2130
sS'553 629 0.0'
p2131
(lp2132
sS'314 337 0.0'
p2133
(lp2134
sS'396 391 0.0'
p2135
(lp2136
sS'223 590 0.0'
p2137
(lp2138
sS'381 661 0.0'
p2139
(lp2140
sS'466 440 1.57079632679'
p2141
(lp2142
sS'304 137 1.57079632679'
p2143
(lp2144
sS'453 537 1.57079632679'
p2145
(lp2146
sS'77 188 1.57079632679'
p2147
(lp2148
sS'360 593 1.57079632679'
p2149
(lp2150
sS'369 43 0.0'
p2151
(lp2152
sS'436 62 1.57079632679'
p2153
(lp2154
sS'366 307 1.57079632679'
p2155
(lp2156
sS'594 336 1.57079632679'
p2157
(lp2158
sS'348 151 0.0'
p2159
(lp2160
sS'680 150 1.57079632679'
p2161
(lp2162
sS'108 211 0.0'
p2163
(lp2164
sS'421 684 1.57079632679'
p2165
(lp2166
sS'692 159 0.0'
p2167
(lp2168
sS'242 692 0.0'
p2169
(lp2170
sS'194 277 0.0'
p2171
(lp2172
sS'62 119 1.57079632679'
p2173
(lp2174
sS'227 354 1.57079632679'
p2175
(lp2176
sS'267 455 1.57079632679'
p2177
(lp2178
sS'532 341 0.0'
p2179
(lp2180
sS'228 456 0.0'
p2181
(lp2182
sS'253 496 0.0'
p2183
(lp2184
sS'170 708 1.57079632679'
p2185
(lp2186
sS'62 284 1.57079632679'
p2187
(lp2188
sS'594 361 1.57079632679'
p2189
(lp2190
sS'668 43 0.0'
p2191
(lp2192
sS'283 311 1.57079632679'
p2193
(lp2194
sS'58 455 0.0'
p2195
(lp2196
sS'698 668 0.0'
p2197
(lp2198
sS'202 270 0.0'
p2199
(lp2200
sS'482 461 0.0'
p2201
(lp2202
sS'661 59 0.0'
p2203
(lp2204
sS'164 567 0.0'
p2205
(lp2206
sS'663 358 1.57079632679'
p2207
(lp2208
sS'102 599 0.0'
p2209
(lp2210
sS'552 514 0.0'
p2211
(lp2212
sS'240 94 0.0'
p2213
(lp2214
sS'211 132 1.57079632679'
p2215
(lp2216
sS'566 396 0.0'
p2217
(lp2218
sS'348 298 0.0'
p2219
(lp2220
sS'175 531 0.0'
p2221
(lp2222
sS'608 84 0.0'
p2223
(lp2224
sS'545 530 1.57079632679'
p2225
(lp2226
sS'236 170 0.0'
p2227
(lp2228
sS'548 441 0.0'
p2229
(lp2230
sS'212 141 0.0'
p2231
(lp2232
sS'367 271 1.57079632679'
p2233
(lp2234
sS'260 528 0.0'
p2235
(lp2236
sS'466 114 0.0'
p2237
(lp2238
sS'266 575 0.0'
p2239
(lp2240
sS'255 287 1.57079632679'
p2241
(lp2242
sS'375 155 0.0'
p2243
(lp2244
sS'129 524 0.0'
p2245
(lp2246
sS'627 618 0.0'
p2247
(lp2248
sS'530 363 1.57079632679'
p2249
(lp2250
sS'703 603 1.57079632679'
p2251
(lp2252
sS'299 314 0.0'
p2253
(lp2254
sS'204 548 0.0'
p2255
(lp2256
sS'389 653 1.57079632679'
p2257
(lp2258
sS'203 318 1.57079632679'
p2259
(lp2260
sS'467 97 1.57079632679'
p2261
(lp2262
sS'238 438 0.0'
p2263
(lp2264
sS'189 227 1.57079632679'
p2265
(lp2266
sS'469 447 0.0'
p2267
(lp2268
sS'76 646 0.0'
p2269
(lp2270
sS'385 67 1.57079632679'
p2271
(lp2272
sS'594 725 0.0'
p2273
(lp2274
sS'95 636 0.0'
p2275
(lp2276
sS'535 457 0.0'
p2277
(lp2278
sS'419 566 0.0'
p2279
(lp2280
sS'371 615 0.0'
p2281
(lp2282
sS'74 457 0.0'
p2283
(lp2284
sS'352 400 0.0'
p2285
(lp2286
sS'701 569 0.0'
p2287
(lp2288
sS'656 631 0.0'
p2289
(lp2290
sS'488 94 1.57079632679'
p2291
(lp2292
sS'159 245 1.57079632679'
p2293
(lp2294
sS'200 197 1.57079632679'
p2295
(lp2296
sS'177 712 1.57079632679'
p2297
(lp2298
sS'444 354 0.0'
p2299
(lp2300
sS'77 697 0.0'
p2301
(lp2302
sS'198 396 0.0'
p2303
(lp2304
sS'138 308 0.0'
p2305
(lp2306
sS'255 150 1.57079632679'
p2307
(lp2308
sS'68 704 0.0'
p2309
(lp2310
sS'62 592 1.57079632679'
p2311
(lp2312
sS'552 529 1.57079632679'
p2313
(lp2314
sS'198 104 1.57079632679'
p2315
(lp2316
sS'602 358 1.57079632679'
p2317
(lp2318
sS'655 80 0.0'
p2319
(lp2320
sS'693 606 1.57079632679'
p2321
(lp2322
sS'177 271 0.0'
p2323
(lp2324
sS'525 393 1.57079632679'
p2325
(lp2326
sS'252 45 0.0'
p2327
(lp2328
sS'398 161 1.57079632679'
p2329
(lp2330
sS'391 49 0.0'
p2331
(lp2332
sS'648 488 0.0'
p2333
(lp2334
sS'285 275 0.0'
p2335
(lp2336
sS'507 731 1.57079632679'
p2337
(lp2338
sS'665 53 0.0'
p2339
(lp2340
sS'682 129 0.0'
p2341
(lp2342
sS'151 262 1.57079632679'
p2343
(lp2344
sS'67 493 1.57079632679'
p2345
(lp2346
sS'268 475 0.0'
p2347
(lp2348
sS'594 652 0.0'
p2349
(lp2350
sS'573 179 0.0'
p2351
(lp2352
sS'689 83 0.0'
p2353
(lp2354
sS'250 566 1.57079632679'
p2355
(lp2356
sS'642 144 0.0'
p2357
(lp2358
sS'570 618 1.57079632679'
p2359
(lp2360
sS'154 530 0.0'
p2361
(lp2362
sS'470 170 0.0'
p2363
(lp2364
sS'568 84 1.57079632679'
p2365
(lp2366
sS'299 181 1.57079632679'
p2367
(lp2368
sS'222 82 0.0'
p2369
(lp2370
sS'191 88 0.0'
p2371
(lp2372
sS'93 155 1.57079632679'
p2373
(lp2374
sS'235 455 0.0'
p2375
(lp2376
sS'249 650 1.57079632679'
p2377
(lp2378
sS'625 168 0.0'
p2379
(lp2380
sS'48 527 1.57079632679'
p2381
(lp2382
sS'329 293 1.57079632679'
p2383
(lp2384
sS'192 443 0.0'
p2385
(lp2386
sS'504 579 1.57079632679'
p2387
(lp2388
sS'228 445 1.57079632679'
p2389
(lp2390
sS'106 273 1.57079632679'
p2391
(lp2392
sS'481 710 1.57079632679'
p2393
(lp2394
sS'227 144 0.0'
p2395
(lp2396
sS'467 701 1.57079632679'
p2397
(lp2398
sS'187 234 1.57079632679'
p2399
(lp2400
sS'653 57 1.57079632679'
p2401
(lp2402
sS'260 60 1.57079632679'
p2403
(lp2404
sS'232 480 1.57079632679'
p2405
(lp2406
sS'176 479 0.0'
p2407
(lp2408
sS'360 528 1.57079632679'
p2409
(lp2410
sS'315 68 0.0'
p2411
(lp2412
sS'438 701 1.57079632679'
p2413
(lp2414
sS'313 169 1.57079632679'
p2415
(lp2416
sS'277 360 0.0'
p2417
(lp2418
sS'622 612 0.0'
p2419
(lp2420
sS'265 172 0.0'
p2421
(lp2422
sS'223 476 1.57079632679'
p2423
(lp2424
sS'267 144 1.57079632679'
p2425
(lp2426
sS'103 69 1.57079632679'
p2427
(lp2428
sS'88 422 1.57079632679'
p2429
(lp2430
sS'457 118 1.57079632679'
p2431
(lp2432
sS'483 654 1.57079632679'
p2433
(lp2434
sS'600 90 1.57079632679'
p2435
(lp2436
sS'189 551 1.57079632679'
p2437
(lp2438
sS'148 510 0.0'
p2439
(lp2440
sS'392 307 1.57079632679'
p2441
(lp2442
sS'686 154 1.57079632679'
p2443
(lp2444
sS'417 583 1.57079632679'
p2445
(lp2446
sS'386 666 0.0'
p2447
(lp2448
sS'229 416 0.0'
p2449
(lp2450
sS'69 47 1.57079632679'
p2451
(lp2452
sS'359 474 1.57079632679'
p2453
(lp2454
sS'322 178 0.0'
p2455
(lp2456
sS'51 709 0.0'
p2457
(lp2458
sS'93 128 1.57079632679'
p2459
(lp2460
sS'494 154 1.57079632679'
p2461
(lp2462
sS'245 274 0.0'
p2463
(lp2464
sS'268 520 1.57079632679'
p2465
(lp2466
sS'458 168 1.57079632679'
p2467
(lp2468
sS'528 450 0.0'
p2469
(lp2470
sS'278 161 0.0'
p2471
(lp2472
sS'74 662 1.57079632679'
p2473
(lp2474
sS'591 379 0.0'
p2475
(lp2476
sS'220 330 1.57079632679'
p2477
(lp2478
sS'577 49 0.0'
p2479
(lp2480
sS'315 82 0.0'
p2481
(lp2482
sS'505 147 0.0'
p2483
(lp2484
sS'248 442 1.57079632679'
p2485
(lp2486
sS'699 298 0.0'
p2487
(lp2488
sS'379 644 1.57079632679'
p2489
(lp2490
sS'154 521 1.57079632679'
p2491
(lp2492
sS'609 134 0.0'
p2493
(lp2494
sS'565 583 1.57079632679'
p2495
(lp2496
sS'245 332 0.0'
p2497
(lp2498
sS'520 539 0.0'
p2499
(lp2500
sS'491 588 1.57079632679'
p2501
(lp2502
sS'377 72 1.57079632679'
p2503
(lp2504
sS'400 91 1.57079632679'
p2505
(lp2506
sS'180 485 1.57079632679'
p2507
(lp2508
sS'567 700 1.57079632679'
p2509
(lp2510
sS'103 288 0.0'
p2511
(lp2512
sS'225 277 1.57079632679'
p2513
(lp2514
sS'117 237 0.0'
p2515
(lp2516
sS'183 473 0.0'
p2517
(lp2518
sS'175 558 0.0'
p2519
(lp2520
sS'537 588 1.57079632679'
p2521
(lp2522
sS'506 136 0.0'
p2523
(lp2524
sS'561 631 0.0'
p2525
(lp2526
sS'208 107 1.57079632679'
p2527
(lp2528
sS'149 233 1.57079632679'
p2529
(lp2530
sS'599 309 1.57079632679'
p2531
(lp2532
sS'94 244 0.0'
p2533
(lp2534
sS'146 110 0.0'
p2535
(lp2536
sS'461 729 0.0'
p2537
(lp2538
sS'393 632 0.0'
p2539
(lp2540
sS'674 127 0.0'
p2541
(lp2542
sS'447 317 0.0'
p2543
(lp2544
sS'203 434 1.57079632679'
p2545
(lp2546
sS'103 224 1.57079632679'
p2547
(lp2548
sS'209 667 1.57079632679'
p2549
(lp2550
sS'648 403 0.0'
p2551
(lp2552
sS'500 649 1.57079632679'
p2553
(lp2554
sS'443 309 0.0'
p2555
(lp2556
sS'521 439 1.57079632679'
p2557
(lp2558
sS'255 706 1.57079632679'
p2559
(lp2560
sS'465 690 0.0'
p2561
(lp2562
sS'90 684 0.0'
p2563
(lp2564
sS'667 587 1.57079632679'
p2565
(lp2566
sS'420 44 1.57079632679'
p2567
(lp2568
sS'393 607 1.57079632679'
p2569
(lp2570
sS'552 708 0.0'
p2571
(lp2572
sS'410 93 1.57079632679'
p2573
(lp2574
sS'156 616 0.0'
p2575
(lp2576
sS'258 480 0.0'
p2577
(lp2578
sS'420 721 1.57079632679'
p2579
(lp2580
sS'391 86 0.0'
p2581
(lp2582
sS'663 393 0.0'
p2583
(lp2584
sS'656 491 1.57079632679'
p2585
(lp2586
sS'263 705 0.0'
p2587
(lp2588
sS'211 370 0.0'
p2589
(lp2590
sS'658 543 1.57079632679'
p2591
(lp2592
sS'104 204 0.0'
p2593
(lp2594
sS'460 578 1.57079632679'
p2595
(lp2596
sS'227 534 0.0'
p2597
(lp2598
sS'95 224 1.57079632679'
p2599
(lp2600
sS'50 105 0.0'
p2601
(lp2602
sS'269 128 1.57079632679'
p2603
(lp2604
sS'315 319 1.57079632679'
p2605
(lp2606
sS'142 617 0.0'
p2607
(lp2608
sS'667 702 0.0'
p2609
(lp2610
sS'646 134 0.0'
p2611
(lp2612
sS'432 306 0.0'
p2613
(lp2614
sS'373 435 0.0'
p2615
(lp2616
sS'307 382 0.0'
p2617
(lp2618
sS'678 54 0.0'
p2619
(lp2620
sS'556 723 0.0'
p2621
(lp2622
sS'551 614 0.0'
p2623
(lp2624
sS'365 335 0.0'
p2625
(lp2626
sS'276 351 1.57079632679'
p2627
(lp2628
sS'227 265 0.0'
p2629
(lp2630
sS'220 538 0.0'
p2631
(lp2632
sS'114 220 0.0'
p2633
(lp2634
sS'692 367 0.0'
p2635
(lp2636
sS'91 643 1.57079632679'
p2637
(lp2638
sS'381 593 1.57079632679'
p2639
(lp2640
sS'230 63 0.0'
p2641
(lp2642
sS'463 452 0.0'
p2643
(lp2644
sS'411 151 0.0'
p2645
(lp2646
sS'248 325 1.57079632679'
p2647
(lp2648
sS'225 368 0.0'
p2649
(lp2650
sS'467 323 0.0'
p2651
(lp2652
sS'253 666 1.57079632679'
p2653
(lp2654
sS'449 359 1.57079632679'
p2655
(lp2656
sS'132 266 1.57079632679'
p2657
(lp2658
sS'52 117 0.0'
p2659
(lp2660
sS'557 123 0.0'
p2661
(lp2662
sS'477 470 0.0'
p2663
(lp2664
sS'678 585 0.0'
p2665
(lp2666
sS'675 386 1.57079632679'
p2667
(lp2668
sS'173 457 1.57079632679'
p2669
(lp2670
sS'637 133 1.57079632679'
p2671
(lp2672
sS'458 460 1.57079632679'
p2673
(lp2674
sS'367 297 1.57079632679'
p2675
(lp2676
sS'651 470 0.0'
p2677
(lp2678
sS'497 273 1.57079632679'
p2679
(lp2680
sS'167 100 0.0'
p2681
(lp2682
sS'500 129 0.0'
p2683
(lp2684
sS'235 55 0.0'
p2685
(lp2686
sS'689 694 1.57079632679'
p2687
(lp2688
sS'588 685 1.57079632679'
p2689
(lp2690
sS'654 152 1.57079632679'
p2691
(lp2692
sS'271 48 1.57079632679'
p2693
(lp2694
sS'581 419 1.57079632679'
p2695
(lp2696
sS'623 294 1.57079632679'
p2697
(lp2698
sS'308 341 0.0'
p2699
(lp2700
sS'400 344 0.0'
p2701
(lp2702
sS'700 154 0.0'
p2703
(lp2704
sS'462 274 1.57079632679'
p2705
(lp2706
sS'204 159 0.0'
p2707
(lp2708
sS'563 624 0.0'
p2709
(lp2710
sS'651 139 0.0'
p2711
(lp2712
sS'108 570 0.0'
p2713
(lp2714
sS'632 55 1.57079632679'
p2715
(lp2716
sS'172 307 0.0'
p2717
(lp2718
sS'232 691 0.0'
p2719
(lp2720
sS'362 93 1.57079632679'
p2721
(lp2722
sS'93 177 1.57079632679'
p2723
(lp2724
sS'689 295 0.0'
p2725
(lp2726
sS'270 163 0.0'
p2727
(lp2728
sS'216 411 0.0'
p2729
(lp2730
sS'213 560 1.57079632679'
p2731
(lp2732
sS'468 179 1.57079632679'
p2733
(lp2734
sS'611 638 0.0'
p2735
(lp2736
sS'508 97 0.0'
p2737
(lp2738
sS'394 432 0.0'
p2739
(lp2740
sS'420 89 0.0'
p2741
(lp2742
sS'236 138 0.0'
p2743
(lp2744
sS'652 284 1.57079632679'
p2745
(lp2746
sS'621 113 1.57079632679'
p2747
(lp2748
sS'310 274 1.57079632679'
p2749
(lp2750
sS'173 82 1.57079632679'
p2751
(lp2752
sS'651 161 0.0'
p2753
(lp2754
sS'200 121 1.57079632679'
p2755
(lp2756
sS'235 350 1.57079632679'
p2757
(lp2758
sS'210 422 0.0'
p2759
(lp2760
sS'64 551 1.57079632679'
p2761
(lp2762
sS'323 281 1.57079632679'
p2763
(lp2764
sS'389 572 1.57079632679'
p2765
(lp2766
sS'140 223 1.57079632679'
p2767
(lp2768
sS'96 186 0.0'
p2769
(lp2770
sS'95 729 1.57079632679'
p2771
(lp2772
sS'613 487 1.57079632679'
p2773
(lp2774
sS'433 108 1.57079632679'
p2775
(lp2776
sS'702 523 1.57079632679'
p2777
(lp2778
sS'456 71 0.0'
p2779
(lp2780
sS'589 58 1.57079632679'
p2781
(lp2782
sS'660 616 1.57079632679'
p2783
(lp2784
sS'95 204 1.57079632679'
p2785
(lp2786
sS'124 113 0.0'
p2787
(lp2788
sS'607 311 0.0'
p2789
(lp2790
sS'358 674 0.0'
p2791
(lp2792
sS'608 574 0.0'
p2793
(lp2794
sS'476 647 1.57079632679'
p2795
(lp2796
sS'583 352 1.57079632679'
p2797
(lp2798
sS'590 731 1.57079632679'
p2799
(lp2800
sS'590 402 1.57079632679'
p2801
(lp2802
sS'623 572 0.0'
p2803
(lp2804
sS'382 349 0.0'
p2805
(lp2806
sS'485 449 1.57079632679'
p2807
(lp2808
sS'532 139 0.0'
p2809
(lp2810
sS'435 92 0.0'
p2811
(lp2812
sS'410 316 0.0'
p2813
(lp2814
sS'364 48 1.57079632679'
p2815
(lp2816
sS'684 144 0.0'
p2817
(lp2818
sS'226 423 0.0'
p2819
(lp2820
sS'237 117 1.57079632679'
p2821
(lp2822
sS'696 374 0.0'
p2823
(lp2824
sS'209 614 1.57079632679'
p2825
(lp2826
sS'475 328 1.57079632679'
p2827
(lp2828
sS'447 278 0.0'
p2829
(lp2830
sS'231 544 1.57079632679'
p2831
(lp2832
sS'634 568 1.57079632679'
p2833
(lp2834
sS'353 49 0.0'
p2835
(lp2836
sS'203 347 0.0'
p2837
(lp2838
sS'207 180 1.57079632679'
p2839
(lp2840
sS'416 491 1.57079632679'
p2841
(lp2842
sS'258 728 0.0'
p2843
(lp2844
sS'385 331 1.57079632679'
p2845
(lp2846
sS'294 136 1.57079632679'
p2847
(lp2848
sS'609 48 0.0'
p2849
(lp2850
sS'457 447 1.57079632679'
p2851
(lp2852
sS'89 412 1.57079632679'
p2853
(lp2854
sS'101 428 0.0'
p2855
(lp2856
sS'391 424 0.0'
p2857
(lp2858
sS'319 355 1.57079632679'
p2859
(lp2860
sS'510 558 0.0'
p2861
(lp2862
sS'61 574 0.0'
p2863
(lp2864
sS'160 268 1.57079632679'
p2865
(lp2866
sS'517 160 1.57079632679'
p2867
(lp2868
sS'515 405 0.0'
p2869
(lp2870
sS'483 669 1.57079632679'
p2871
(lp2872
sS'104 729 1.57079632679'
p2873
(lp2874
sS'359 167 1.57079632679'
p2875
(lp2876
sS'85 86 1.57079632679'
p2877
(lp2878
sS'572 324 0.0'
p2879
(lp2880
sS'65 59 0.0'
p2881
(lp2882
sS'341 276 0.0'
p2883
(lp2884
sS'230 322 1.57079632679'
p2885
(lp2886
sS'453 544 0.0'
p2887
(lp2888
sS'391 599 0.0'
p2889
(lp2890
sS'594 614 0.0'
p2891
(lp2892
sS'385 58 0.0'
p2893
(lp2894
sS'571 280 1.57079632679'
p2895
(lp2896
sS'184 222 0.0'
p2897
(lp2898
sS'122 731 0.0'
p2899
(lp2900
sS'397 675 1.57079632679'
p2901
(lp2902
sS'217 67 1.57079632679'
p2903
(lp2904
sS'397 293 0.0'
p2905
(lp2906
sS'700 167 1.57079632679'
p2907
(lp2908
sS'138 103 0.0'
p2909
(lp2910
sS'662 412 1.57079632679'
p2911
(lp2912
sS'689 544 1.57079632679'
p2913
(lp2914
sS'50 262 1.57079632679'
p2915
(lp2916
sS'107 308 0.0'
p2917
(lp2918
sS'563 596 1.57079632679'
p2919
(lp2920
sS'651 175 0.0'
p2921
(lp2922
sS'431 373 1.57079632679'
p2923
(lp2924
sS'223 553 0.0'
p2925
(lp2926
sS'224 105 0.0'
p2927
(lp2928
sS'243 490 0.0'
p2929
(lp2930
sS'376 167 1.57079632679'
p2931
(lp2932
sS'124 284 1.57079632679'
p2933
(lp2934
sS'599 599 0.0'
p2935
(lp2936
sS'554 544 0.0'
p2937
(lp2938
sS'175 542 0.0'
p2939
(lp2940
sS'558 617 0.0'
p2941
(lp2942
sS'473 636 0.0'
p2943
(lp2944
sS'160 231 0.0'
p2945
(lp2946
sS'110 232 1.57079632679'
p2947
(lp2948
sS'421 342 1.57079632679'
p2949
(lp2950
sS'557 404 0.0'
p2951
(lp2952
sS'91 691 0.0'
p2953
(lp2954
sS'123 264 1.57079632679'
p2955
(lp2956
sS'440 52 1.57079632679'
p2957
(lp2958
sS'376 463 1.57079632679'
p2959
(lp2960
sS'681 289 1.57079632679'
p2961
(lp2962
sS'472 420 1.57079632679'
p2963
(lp2964
sS'243 161 1.57079632679'
p2965
(lp2966
sS'610 77 0.0'
p2967
(lp2968
sS'653 592 0.0'
p2969
(lp2970
sS'198 53 1.57079632679'
p2971
(lp2972
sS'444 330 1.57079632679'
p2973
(lp2974
sS'166 75 1.57079632679'
p2975
(lp2976
sS'266 585 0.0'
p2977
(lp2978
sS'579 121 0.0'
p2979
(lp2980
sS'380 176 0.0'
p2981
(lp2982
sS'118 596 1.57079632679'
p2983
(lp2984
sS'238 81 1.57079632679'
p2985
(lp2986
sS'135 596 1.57079632679'
p2987
(lp2988
sS'78 446 0.0'
p2989
(lp2990
sS'587 700 1.57079632679'
p2991
(lp2992
sS'160 718 0.0'
p2993
(lp2994
sS'179 404 0.0'
p2995
(lp2996
sS'477 299 1.57079632679'
p2997
(lp2998
sS'184 287 1.57079632679'
p2999
(lp3000
sS'92 286 0.0'
p3001
(lp3002
sS'457 356 0.0'
p3003
(lp3004
sS'556 156 0.0'
p3005
(lp3006
sS'244 598 0.0'
p3007
(lp3008
sS'603 609 0.0'
p3009
(lp3010
sS'72 655 1.57079632679'
p3011
(lp3012
sS'268 699 0.0'
p3013
(lp3014
sS'533 394 0.0'
p3015
(lp3016
sS'228 47 1.57079632679'
p3017
(lp3018
sS'55 447 0.0'
p3019
(lp3020
sS'352 353 1.57079632679'
p3021
(lp3022
sS'529 551 1.57079632679'
p3023
(lp3024
sS'155 583 1.57079632679'
p3025
(lp3026
sS'572 62 1.57079632679'
p3027
(lp3028
sS'436 728 0.0'
p3029
(lp3030
sS'475 177 0.0'
p3031
(lp3032
sS'164 91 1.57079632679'
p3033
(lp3034
sS'596 578 1.57079632679'
p3035
(lp3036
sS'648 504 1.57079632679'
p3037
(lp3038
sS'362 106 0.0'
p3039
(lp3040
sS'444 512 0.0'
p3041
(lp3042
sS'532 386 0.0'
p3043
(lp3044
sS'99 617 1.57079632679'
p3045
(lp3046
sS'247 418 0.0'
p3047
(lp3048
sS'441 435 1.57079632679'
p3049
(lp3050
sS'537 147 1.57079632679'
p3051
(lp3052
sS'315 179 0.0'
p3053
(lp3054
sS'354 337 0.0'
p3055
(lp3056
sS'631 725 1.57079632679'
p3057
(lp3058
sS'411 326 1.57079632679'
p3059
(lp3060
sS'502 539 0.0'
p3061
(lp3062
sS'425 63 0.0'
p3063
(lp3064
sS'285 302 1.57079632679'
p3065
(lp3066
sS'148 91 1.57079632679'
p3067
(lp3068
sS'447 105 0.0'
p3069
(lp3070
sS'671 288 1.57079632679'
p3071
(lp3072
sS'527 173 0.0'
p3073
(lp3074
sS'460 715 0.0'
p3075
(lp3076
sS'190 262 1.57079632679'
p3077
(lp3078
sS'645 60 1.57079632679'
p3079
(lp3080
sS'305 353 1.57079632679'
p3081
(lp3082
sS'74 670 0.0'
p3083
(lp3084
sS'170 525 1.57079632679'
p3085
(lp3086
sS'135 147 1.57079632679'
p3087
(lp3088
sS'226 564 1.57079632679'
p3089
(lp3090
sS'246 450 0.0'
p3091
(lp3092
sS'200 578 1.57079632679'
p3093
(lp3094
sS'424 510 1.57079632679'
p3095
(lp3096
sS'465 285 0.0'
p3097
(lp3098
sS'474 657 0.0'
p3099
(lp3100
sS'174 257 1.57079632679'
p3101
(lp3102
sS'185 215 0.0'
p3103
(lp3104
sS'461 662 0.0'
p3105
(lp3106
sS'285 379 0.0'
p3107
(lp3108
sS'224 516 1.57079632679'
p3109
(lp3110
sS'631 582 1.57079632679'
p3111
(lp3112
sS'677 730 1.57079632679'
p3113
(lp3114
sS'640 430 0.0'
p3115
(lp3116
sS'594 433 1.57079632679'
p3117
(lp3118
sS'613 113 1.57079632679'
p3119
(lp3120
sS'535 317 0.0'
p3121
(lp3122
sS'407 427 1.57079632679'
p3123
(lp3124
sS'673 364 0.0'
p3125
(lp3126
sS'180 449 0.0'
p3127
(lp3128
sS'555 596 1.57079632679'
p3129
(lp3130
sS'405 135 1.57079632679'
p3131
(lp3132
sS'212 279 1.57079632679'
p3133
(lp3134
sS'229 600 1.57079632679'
p3135
(lp3136
sS'429 481 1.57079632679'
p3137
(lp3138
sS'142 265 0.0'
p3139
(lp3140
sS'411 621 1.57079632679'
p3141
(lp3142
sS'342 394 1.57079632679'
p3143
(lp3144
sS'560 418 1.57079632679'
p3145
(lp3146
sS'194 522 1.57079632679'
p3147
(lp3148
sS'397 446 1.57079632679'
p3149
(lp3150
sS'585 359 1.57079632679'
p3151
(lp3152
sS'116 307 0.0'
p3153
(lp3154
sS'49 124 0.0'
p3155
(lp3156
sS'223 677 1.57079632679'
p3157
(lp3158
sS'689 557 1.57079632679'
p3159
(lp3160
sS'688 72 0.0'
p3161
(lp3162
sS'131 242 1.57079632679'
p3163
(lp3164
sS'102 78 0.0'
p3165
(lp3166
sS'597 571 0.0'
p3167
(lp3168
sS'448 44 1.57079632679'
p3169
(lp3170
sS'329 369 0.0'
p3171
(lp3172
sS'388 397 1.57079632679'
p3173
(lp3174
sS'374 688 0.0'
p3175
(lp3176
sS'698 711 0.0'
p3177
(lp3178
sS'291 356 1.57079632679'
p3179
(lp3180
sS'357 138 1.57079632679'
p3181
(lp3182
sS'702 83 0.0'
p3183
(lp3184
sS'323 348 1.57079632679'
p3185
(lp3186
sS'573 434 0.0'
p3187
(lp3188
sS'376 571 0.0'
p3189
(lp3190
sS'444 87 1.57079632679'
p3191
(lp3192
sS'643 126 0.0'
p3193
(lp3194
sS'264 537 1.57079632679'
p3195
(lp3196
sS'612 357 1.57079632679'
p3197
(lp3198
sS'194 562 0.0'
p3199
(lp3200
sS'372 580 0.0'
p3201
(lp3202
sS'680 71 0.0'
p3203
(lp3204
sS'218 244 1.57079632679'
p3205
(lp3206
sS'170 563 0.0'
p3207
(lp3208
sS'72 405 0.0'
p3209
(lp3210
sS'152 699 1.57079632679'
p3211
(lp3212
sS'200 246 1.57079632679'
p3213
(lp3214
sS'637 588 1.57079632679'
p3215
(lp3216
sS'238 179 0.0'
p3217
(lp3218
sS'270 388 0.0'
p3219
(lp3220
sS'165 82 0.0'
p3221
(lp3222
sS'354 345 1.57079632679'
p3223
(lp3224
sS'300 172 1.57079632679'
p3225
(lp3226
sS'207 210 1.57079632679'
p3227
(lp3228
sS'659 624 0.0'
p3229
(lp3230
sS'599 659 0.0'
p3231
(lp3232
sS'405 693 0.0'
p3233
(lp3234
sS'49 96 0.0'
p3235
(lp3236
sS'681 170 0.0'
p3237
(lp3238
sS'245 614 1.57079632679'
p3239
(lp3240
sS'478 335 1.57079632679'
p3241
(lp3242
sS'335 396 0.0'
p3243
(lp3244
sS'215 593 1.57079632679'
p3245
(lp3246
sS'199 554 0.0'
p3247
(lp3248
sS'365 374 1.57079632679'
p3249
(lp3250
sS'581 277 1.57079632679'
p3251
(lp3252
sS'350 281 1.57079632679'
p3253
(lp3254
sS'571 389 0.0'
p3255
(lp3256
sS'252 530 0.0'
p3257
(lp3258
sS'619 491 0.0'
p3259
(lp3260
sS'470 310 0.0'
p3261
(lp3262
sS'358 331 1.57079632679'
p3263
(lp3264
sS'380 296 1.57079632679'
p3265
(lp3266
sS'249 637 1.57079632679'
p3267
(lp3268
sS'202 586 1.57079632679'
p3269
(lp3270
sS'524 135 0.0'
p3271
(lp3272
sS'669 571 0.0'
p3273
(lp3274
sS'672 396 1.57079632679'
p3275
(lp3276
sS'554 374 1.57079632679'
p3277
(lp3278
sS'325 375 0.0'
p3279
(lp3280
sS'471 411 1.57079632679'
p3281
(lp3282
sS'630 79 1.57079632679'
p3283
(lp3284
sS'693 353 1.57079632679'
p3285
(lp3286
sS'445 566 1.57079632679'
p3287
(lp3288
sS'124 716 0.0'
p3289
(lp3290
sS'108 609 1.57079632679'
p3291
(lp3292
sS'217 361 1.57079632679'
p3293
(lp3294
sS'54 287 1.57079632679'
p3295
(lp3296
sS'203 560 1.57079632679'
p3297
(lp3298
sS'124 231 0.0'
p3299
(lp3300
sS'156 277 0.0'
p3301
(lp3302
sS'430 127 1.57079632679'
p3303
(lp3304
sS'397 411 1.57079632679'
p3305
(lp3306
sS'581 339 0.0'
p3307
(lp3308
sS'179 101 1.57079632679'
p3309
(lp3310
sS'413 599 1.57079632679'
p3311
(lp3312
sS'291 149 0.0'
p3313
(lp3314
sS'337 181 1.57079632679'
p3315
(lp3316
sS'499 558 1.57079632679'
p3317
(lp3318
sS'178 566 0.0'
p3319
(lp3320
sS'700 704 1.57079632679'
p3321
(lp3322
sS'213 229 0.0'
p3323
(lp3324
sS'630 64 1.57079632679'
p3325
(lp3326
sS'413 354 0.0'
p3327
(lp3328
sS'131 615 1.57079632679'
p3329
(lp3330
sS'365 429 1.57079632679'
p3331
(lp3332
sS'462 649 0.0'
p3333
(lp3334
sS'51 71 1.57079632679'
p3335
(lp3336
sS'353 365 0.0'
p3337
(lp3338
sS'459 45 1.57079632679'
p3339
(lp3340
sS'480 100 1.57079632679'
p3341
(lp3342
sS'672 415 0.0'
p3343
(lp3344
sS'156 96 1.57079632679'
p3345
(lp3346
sS'473 441 0.0'
p3347
(lp3348
sS'415 426 1.57079632679'
p3349
(lp3350
sS'103 46 1.57079632679'
p3351
(lp3352
sS'596 272 0.0'
p3353
(lp3354
sS'404 466 0.0'
p3355
(lp3356
sS'582 605 0.0'
p3357
(lp3358
sS'247 52 0.0'
p3359
(lp3360
sS'430 506 0.0'
p3361
(lp3362
sS'577 348 0.0'
p3363
(lp3364
sS'635 140 0.0'
p3365
(lp3366
sS'412 104 0.0'
p3367
(lp3368
sS'518 140 0.0'
p3369
(lp3370
sS'401 119 1.57079632679'
p3371
(lp3372
sS'221 724 1.57079632679'
p3373
(lp3374
sS'521 167 0.0'
p3375
(lp3376
sS'409 299 0.0'
p3377
(lp3378
sS'506 528 0.0'
p3379
(lp3380
sS'399 611 1.57079632679'
p3381
(lp3382
sS'446 57 1.57079632679'
p3383
(lp3384
sS'560 588 1.57079632679'
p3385
(lp3386
sS'144 561 0.0'
p3387
(lp3388
sS'366 116 0.0'
p3389
(lp3390
sS'349 381 1.57079632679'
p3391
(lp3392
sS'187 728 0.0'
p3393
(lp3394
sS'53 726 1.57079632679'
p3395
(lp3396
sS'408 672 1.57079632679'
p3397
(lp3398
sS'631 273 1.57079632679'
p3399
(lp3400
sS'65 692 1.57079632679'
p3401
(lp3402
sS'232 368 1.57079632679'
p3403
(lp3404
sS'172 200 0.0'
p3405
(lp3406
sS'617 107 1.57079632679'
p3407
(lp3408
sS'172 507 1.57079632679'
p3409
(lp3410
sS'698 553 1.57079632679'
p3411
(lp3412
sS'687 358 1.57079632679'
p3413
(lp3414
sS'140 682 0.0'
p3415
(lp3416
sS'490 425 1.57079632679'
p3417
(lp3418
sS'83 66 1.57079632679'
p3419
(lp3420
sS'78 594 0.0'
p3421
(lp3422
sS'230 293 0.0'
p3423
(lp3424
sS'663 681 0.0'
p3425
(lp3426
sS'323 171 1.57079632679'
p3427
(lp3428
sS'496 657 1.57079632679'
p3429
(lp3430
sS'111 461 0.0'
p3431
(lp3432
sS'139 538 1.57079632679'
p3433
(lp3434
sS'160 60 1.57079632679'
p3435
(lp3436
sS'370 403 1.57079632679'
p3437
(lp3438
sS'167 222 0.0'
p3439
(lp3440
sS'554 146 0.0'
p3441
(lp3442
sS'118 255 1.57079632679'
p3443
(lp3444
sS'60 69 1.57079632679'
p3445
(lp3446
sS'222 168 1.57079632679'
p3447
(lp3448
sS'502 160 1.57079632679'
p3449
(lp3450
sS'337 137 1.57079632679'
p3451
(lp3452
sS'600 647 1.57079632679'
p3453
(lp3454
sS'263 102 0.0'
p3455
(lp3456
sS'339 129 1.57079632679'
p3457
(lp3458
sS'507 426 0.0'
p3459
(lp3460
sS'429 284 0.0'
p3461
(lp3462
sS'590 280 0.0'
p3463
(lp3464
sS'640 55 1.57079632679'
p3465
(lp3466
sS'55 415 1.57079632679'
p3467
(lp3468
sS'205 356 0.0'
p3469
(lp3470
sS'610 606 1.57079632679'
p3471
(lp3472
sS'605 632 1.57079632679'
p3473
(lp3474
sS'662 155 1.57079632679'
p3475
(lp3476
sS'472 728 0.0'
p3477
(lp3478
sS'296 383 0.0'
p3479
(lp3480
sS'322 66 0.0'
p3481
(lp3482
sS'565 609 1.57079632679'
p3483
(lp3484
sS'100 641 0.0'
p3485
(lp3486
sS'670 727 0.0'
p3487
(lp3488
sS'155 678 0.0'
p3489
(lp3490
sS'495 691 1.57079632679'
p3491
(lp3492
sS'564 430 1.57079632679'
p3493
(lp3494
sS'519 723 0.0'
p3495
(lp3496
sS'246 170 0.0'
p3497
(lp3498
sS'661 123 1.57079632679'
p3499
(lp3500
sS'650 438 0.0'
p3501
(lp3502
sS'505 108 1.57079632679'
p3503
(lp3504
sS'640 179 1.57079632679'
p3505
(lp3506
sS'179 431 0.0'
p3507
(lp3508
sS'410 479 1.57079632679'
p3509
(lp3510
sS'214 236 0.0'
p3511
(lp3512
sS'538 571 1.57079632679'
p3513
(lp3514
sS'414 390 0.0'
p3515
(lp3516
sS'222 238 0.0'
p3517
(lp3518
sS'344 169 0.0'
p3519
(lp3520
sS'589 692 1.57079632679'
p3521
(lp3522
sS'96 216 0.0'
p3523
(lp3524
sS'573 410 1.57079632679'
p3525
(lp3526
sS'217 217 0.0'
p3527
(lp3528
sS'647 539 1.57079632679'
p3529
(lp3530
sS'656 433 1.57079632679'
p3531
(lp3532
sS'536 522 1.57079632679'
p3533
(lp3534
sS'91 299 1.57079632679'
p3535
(lp3536
sS'464 585 1.57079632679'
p3537
(lp3538
sS'169 549 0.0'
p3539
(lp3540
sS'330 271 0.0'
p3541
(lp3542
sS'265 326 0.0'
p3543
(lp3544
sS'499 731 1.57079632679'
p3545
(lp3546
sS'511 420 0.0'
p3547
(lp3548
sS'345 313 1.57079632679'
p3549
(lp3550
sS'158 495 1.57079632679'
p3551
(lp3552
sS'257 551 0.0'
p3553
(lp3554
sS'380 564 1.57079632679'
p3555
(lp3556
sS'696 305 0.0'
p3557
(lp3558
sS'118 214 1.57079632679'
p3559
(lp3560
sS'406 331 0.0'
p3561
(lp3562
sS'201 447 1.57079632679'
p3563
(lp3564
sS'599 48 0.0'
p3565
(lp3566
sS'677 719 1.57079632679'
p3567
(lp3568
sS'65 541 0.0'
p3569
(lp3570
sS'640 155 1.57079632679'
p3571
(lp3572
sS'563 569 1.57079632679'
p3573
(lp3574
sS'667 63 1.57079632679'
p3575
(lp3576
sS'511 724 0.0'
p3577
(lp3578
sS'594 396 0.0'
p3579
(lp3580
sS'701 613 1.57079632679'
p3581
(lp3582
sS'130 584 0.0'
p3583
(lp3584
sS'144 704 1.57079632679'
p3585
(lp3586
sS'217 390 0.0'
p3587
(lp3588
sS'248 365 0.0'
p3589
(lp3590
sS'470 345 1.57079632679'
p3591
(lp3592
sS'105 157 0.0'
p3593
(lp3594
sS'146 716 1.57079632679'
p3595
(lp3596
sS'170 574 1.57079632679'
p3597
(lp3598
sS'423 707 1.57079632679'
p3599
(lp3600
sS'109 63 0.0'
p3601
(lp3602
sS'462 683 0.0'
p3603
(lp3604
sS'257 674 1.57079632679'
p3605
(lp3606
sS'188 106 1.57079632679'
p3607
(lp3608
sS'672 531 0.0'
p3609
(lp3610
sS'224 115 1.57079632679'
p3611
(lp3612
sS'60 712 0.0'
p3613
(lp3614
sS'585 428 0.0'
p3615
(lp3616
sS'621 271 0.0'
p3617
(lp3618
sS'501 551 1.57079632679'
p3619
(lp3620
sS'193 458 0.0'
p3621
(lp3622
sS'369 566 0.0'
p3623
(lp3624
sS'668 379 0.0'
p3625
(lp3626
sS'638 85 1.57079632679'
p3627
(lp3628
sS'277 143 0.0'
p3629
(lp3630
sS'59 532 1.57079632679'
p3631
(lp3632
sS'455 126 0.0'
p3633
(lp3634
sS'208 532 0.0'
p3635
(lp3636
sS'419 137 1.57079632679'
p3637
(lp3638
sS'116 701 0.0'
p3639
(lp3640
sS'417 274 1.57079632679'
p3641
(lp3642
sS'262 350 1.57079632679'
p3643
(lp3644
sS'586 88 1.57079632679'
p3645
(lp3646
sS'134 665 0.0'
p3647
(lp3648
sS'269 136 1.57079632679'
p3649
(lp3650
sS'573 379 0.0'
p3651
(lp3652
sS'405 447 0.0'
p3653
(lp3654
sS'250 119 1.57079632679'
p3655
(lp3656
sS'421 319 1.57079632679'
p3657
(lp3658
sS'357 81 0.0'
p3659
(lp3660
sS'692 398 0.0'
p3661
(lp3662
sS'199 363 0.0'
p3663
(lp3664
sS'143 151 1.57079632679'
p3665
(lp3666
sS'446 78 0.0'
p3667
(lp3668
sS'425 106 1.57079632679'
p3669
(lp3670
sS'248 727 0.0'
p3671
(lp3672
sS'70 559 0.0'
p3673
(lp3674
sS'345 144 1.57079632679'
p3675
(lp3676
sS'603 73 1.57079632679'
p3677
(lp3678
sS'187 278 0.0'
p3679
(lp3680
sS'455 55 1.57079632679'
p3681
(lp3682
sS'630 590 1.57079632679'
p3683
(lp3684
sS'526 458 0.0'
p3685
(lp3686
sS'309 406 1.57079632679'
p3687
(lp3688
sS'245 317 0.0'
p3689
(lp3690
sS'119 136 0.0'
p3691
(lp3692
sS'48 45 1.57079632679'
p3693
(lp3694
sS'462 303 1.57079632679'
p3695
(lp3696
sS'531 532 0.0'
p3697
(lp3698
sS'129 689 0.0'
p3699
(lp3700
sS'389 390 1.57079632679'
p3701
(lp3702
sS'454 432 0.0'
p3703
(lp3704
sS'612 432 1.57079632679'
p3705
(lp3706
sS'330 307 1.57079632679'
p3707
(lp3708
sS'481 636 1.57079632679'
p3709
(lp3710
sS'651 614 0.0'
p3711
(lp3712
sS'54 651 1.57079632679'
p3713
(lp3714
sS'478 429 0.0'
p3715
(lp3716
sS'654 395 1.57079632679'
p3717
(lp3718
sS'335 364 0.0'
p3719
(lp3720
sS'548 507 1.57079632679'
p3721
(lp3722
sS'542 371 0.0'
p3723
(lp3724
sS'568 316 1.57079632679'
p3725
(lp3726
sS'610 61 1.57079632679'
p3727
(lp3728
sS'234 499 0.0'
p3729
(lp3730
sS'59 721 1.57079632679'
p3731
(lp3732
sS'609 339 1.57079632679'
p3733
(lp3734
sS'566 148 0.0'
p3735
(lp3736
sS'69 138 0.0'
p3737
(lp3738
sS'225 248 1.57079632679'
p3739
(lp3740
sS'80 118 0.0'
p3741
(lp3742
sS'354 373 1.57079632679'
p3743
(lp3744
sS'640 486 0.0'
p3745
(lp3746
sS'387 611 0.0'
p3747
(lp3748
sS'624 595 0.0'
p3749
(lp3750
sS'60 100 0.0'
p3751
(lp3752
sS'521 528 1.57079632679'
p3753
(lp3754
sS'102 592 0.0'
p3755
(lp3756
sS'692 537 1.57079632679'
p3757
(lp3758
sS'213 352 1.57079632679'
p3759
(lp3760
sS'403 701 0.0'
p3761
(lp3762
sS'72 436 0.0'
p3763
(lp3764
sS'433 427 0.0'
p3765
(lp3766
sS'558 82 0.0'
p3767
(lp3768
sS'279 336 1.57079632679'
p3769
(lp3770
sS'405 386 1.57079632679'
p3771
(lp3772
sS'237 578 0.0'
p3773
(lp3774
sS'645 395 0.0'
p3775
(lp3776
sS'400 275 1.57079632679'
p3777
(lp3778
sS'387 154 0.0'
p3779
(lp3780
sS'450 700 0.0'
p3781
(lp3782
sS'357 274 0.0'
p3783
(lp3784
sS'119 96 1.57079632679'
p3785
(lp3786
sS'66 175 0.0'
p3787
(lp3788
sS'394 578 0.0'
p3789
(lp3790
sS'391 563 0.0'
p3791
(lp3792
sS'289 168 0.0'
p3793
(lp3794
sS'373 123 1.57079632679'
p3795
(lp3796
sS'483 436 1.57079632679'
p3797
(lp3798
sS'436 312 0.0'
p3799
(lp3800
sS'224 381 1.57079632679'
p3801
(lp3802
sS'381 393 1.57079632679'
p3803
(lp3804
sS'366 464 1.57079632679'
p3805
(lp3806
sS'231 342 1.57079632679'
p3807
(lp3808
sS'462 318 0.0'
p3809
(lp3810
sS'363 601 1.57079632679'
p3811
(lp3812
sS'465 709 1.57079632679'
p3813
(lp3814
sS'422 693 0.0'
p3815
(lp3816
sS'573 304 1.57079632679'
p3817
(lp3818
sS'371 56 0.0'
p3819
(lp3820
sS'381 682 1.57079632679'
p3821
(lp3822
sS'225 175 1.57079632679'
p3823
(lp3824
sS'139 200 0.0'
p3825
(lp3826
sS'217 451 1.57079632679'
p3827
(lp3828
sS'418 713 0.0'
p3829
(lp3830
sS'606 270 0.0'
p3831
(lp3832
sS'334 68 1.57079632679'
p3833
(lp3834
sS'491 727 1.57079632679'
p3835
(lp3836
sS'206 116 1.57079632679'
p3837
(lp3838
sS'53 149 0.0'
p3839
(lp3840
sS'61 130 0.0'
p3841
(lp3842
sS'176 230 0.0'
p3843
(lp3844
sS'610 279 1.57079632679'
p3845
(lp3846
sS'222 405 0.0'
p3847
(lp3848
sS'102 683 0.0'
p3849
(lp3850
sS'194 60 0.0'
p3851
(lp3852
sS'587 638 0.0'
p3853
(lp3854
sS'90 659 0.0'
p3855
(lp3856
sS'136 280 1.57079632679'
p3857
(lp3858
sS'193 467 0.0'
p3859
(lp3860
sS'371 657 0.0'
p3861
(lp3862
sS'128 551 0.0'
p3863
(lp3864
sS'664 368 0.0'
p3865
(lp3866
sS'344 350 0.0'
p3867
(lp3868
sS'662 162 0.0'
p3869
(lp3870
sS'88 55 0.0'
p3871
(lp3872
sS'426 442 1.57079632679'
p3873
(lp3874
sS'585 331 1.57079632679'
p3875
(lp3876
sS'184 571 0.0'
p3877
(lp3878
sS'357 302 1.57079632679'
p3879
(lp3880
sS'688 431 0.0'
p3881
(lp3882
sS'376 411 0.0'
p3883
(lp3884
sS'217 156 1.57079632679'
p3885
(lp3886
sS'288 398 1.57079632679'
p3887
(lp3888
sS'687 727 0.0'
p3889
(lp3890
sS'231 286 0.0'
p3891
(lp3892
sS'53 674 1.57079632679'
p3893
(lp3894
sS'108 587 0.0'
p3895
(lp3896
sS'681 619 0.0'
p3897
(lp3898
sS'312 360 0.0'
p3899
(lp3900
sS'130 213 1.57079632679'
p3901
(lp3902
sS'599 637 1.57079632679'
p3903
(lp3904
sS'540 165 0.0'
p3905
(lp3906
sS'233 90 0.0'
p3907
(lp3908
sS'590 369 0.0'
p3909
(lp3910
sS'64 730 0.0'
p3911
(lp3912
sS'703 591 0.0'
p3913
(lp3914
sS'93 721 0.0'
p3915
(lp3916
sS'292 308 0.0'
p3917
(lp3918
sS'448 711 0.0'
p3919
(lp3920
sS'459 105 1.57079632679'
p3921
(lp3922
sS'332 344 0.0'
p3923
(lp3924
sS'237 512 1.57079632679'
p3925
(lp3926
sS'72 719 1.57079632679'
p3927
(lp3928
sS'392 403 1.57079632679'
p3929
(lp3930
sS'145 303 1.57079632679'
p3931
(lp3932
sS'168 284 1.57079632679'
p3933
(lp3934
sS'398 601 0.0'
p3935
(lp3936
sS'150 226 1.57079632679'
p3937
(lp3938
sS'69 128 0.0'
p3939
(lp3940
sS'84 462 1.57079632679'
p3941
(lp3942
sS'394 374 0.0'
p3943
(lp3944
sS'121 683 1.57079632679'
p3945
(lp3946
sS'695 525 0.0'
p3947
(lp3948
sS'624 136 1.57079632679'
p3949
(lp3950
sS'240 148 0.0'
p3951
(lp3952
sS'399 44 0.0'
p3953
(lp3954
sS'506 446 0.0'
p3955
(lp3956
sS'422 456 1.57079632679'
p3957
(lp3958
sS'83 560 1.57079632679'
p3959
(lp3960
sS'101 466 0.0'
p3961
(lp3962
sS'267 120 0.0'
p3963
(lp3964
sS'539 536 0.0'
p3965
(lp3966
sS'238 617 0.0'
p3967
(lp3968
sS'482 131 0.0'
p3969
(lp3970
sS'406 723 1.57079632679'
p3971
(lp3972
sS'618 301 1.57079632679'
p3973
(lp3974
sS'277 307 1.57079632679'
p3975
(lp3976
sS'624 70 1.57079632679'
p3977
(lp3978
sS'62 565 1.57079632679'
p3979
(lp3980
sS'483 164 0.0'
p3981
(lp3982
sS'431 319 1.57079632679'
p3983
(lp3984
sS'604 671 0.0'
p3985
(lp3986
sS'258 558 0.0'
p3987
(lp3988
sS'626 394 0.0'
p3989
(lp3990
sS'82 106 0.0'
p3991
(lp3992
sS'641 495 1.57079632679'
p3993
(lp3994
sS'109 186 1.57079632679'
p3995
(lp3996
sS'55 589 1.57079632679'
p3997
(lp3998
sS'530 569 1.57079632679'
p3999
(lp4000
sS'255 336 0.0'
p4001
(lp4002
sS'423 486 0.0'
p4003
(lp4004
sS'192 415 1.57079632679'
p4005
(lp4006
sS'632 180 0.0'
p4007
(lp4008
sS'171 297 0.0'
p4009
(lp4010
sS'446 584 0.0'
p4011
(lp4012
sS'57 582 0.0'
p4013
(lp4014
sS'426 301 0.0'
p4015
(lp4016
sS'552 478 0.0'
p4017
(lp4018
sS'363 154 0.0'
p4019
(lp4020
sS'190 294 0.0'
p4021
(lp4022
sS'386 675 1.57079632679'
p4023
(lp4024
sS'513 565 1.57079632679'
p4025
(lp4026
sS'643 299 0.0'
p4027
(lp4028
sS'576 690 0.0'
p4029
(lp4030
sS'129 151 0.0'
p4031
(lp4032
sS'138 118 0.0'
p4033
(lp4034
sS'104 420 1.57079632679'
p4035
(lp4036
sS'101 143 1.57079632679'
p4037
(lp4038
sS'232 521 1.57079632679'
p4039
(lp4040
sS'215 475 0.0'
p4041
(lp4042
sS'202 477 0.0'
p4043
(lp4044
sS'530 540 0.0'
p4045
(lp4046
sS'185 523 0.0'
p4047
(lp4048
sS'93 432 0.0'
p4049
(lp4050
sS'420 590 0.0'
p4051
(lp4052
sS'53 545 0.0'
p4053
(lp4054
sS'703 370 1.57079632679'
p4055
(lp4056
sS'261 713 1.57079632679'
p4057
(lp4058
sS'423 398 1.57079632679'
p4059
(lp4060
sS'212 122 1.57079632679'
p4061
(lp4062
sS'586 137 1.57079632679'
p4063
(lp4064
sS'326 319 0.0'
p4065
(lp4066
sS'693 47 1.57079632679'
p4067
(lp4068
sS'383 584 0.0'
p4069
(lp4070
sS'405 164 0.0'
p4071
(lp4072
sS'687 631 1.57079632679'
p4073
(lp4074
sS'425 277 0.0'
p4075
(lp4076
sS'541 389 0.0'
p4077
(lp4078
sS'429 693 0.0'
p4079
(lp4080
sS'387 460 1.57079632679'
p4081
(lp4082
sS'327 397 0.0'
p4083
(lp4084
sS'426 416 0.0'
p4085
(lp4086
sS'404 81 0.0'
p4087
(lp4088
sS'678 274 1.57079632679'
p4089
(lp4090
sS'374 89 1.57079632679'
p4091
(lp4092
sS'304 398 0.0'
p4093
(lp4094
sS'696 418 1.57079632679'
p4095
(lp4096
sS'396 458 0.0'
p4097
(lp4098
sS'256 357 0.0'
p4099
(lp4100
sS'231 384 1.57079632679'
p4101
(lp4102
sS'454 330 0.0'
p4103
(lp4104
sS'384 437 1.57079632679'
p4105
(lp4106
sS'498 456 1.57079632679'
p4107
(lp4108
sS'195 80 1.57079632679'
p4109
(lp4110
sS'548 413 1.57079632679'
p4111
(lp4112
sS'413 592 1.57079632679'
p4113
(lp4114
sS'503 176 0.0'
p4115
(lp4116
sS'296 300 1.57079632679'
p4117
(lp4118
sS'580 582 1.57079632679'
p4119
(lp4120
sS'234 468 1.57079632679'
p4121
(lp4122
sS'547 538 0.0'
p4123
(lp4124
sS'331 155 0.0'
p4125
(lp4126
sS'318 135 1.57079632679'
p4127
(lp4128
sS'267 560 1.57079632679'
p4129
(lp4130
sS'458 177 0.0'
p4131
(lp4132
sS'68 581 1.57079632679'
p4133
(lp4134
sS'201 491 1.57079632679'
p4135
(lp4136
sS'92 86 0.0'
p4137
(lp4138
sS'369 559 1.57079632679'
p4139
(lp4140
sS'48 250 0.0'
p4141
(lp4142
sS'679 157 0.0'
p4143
(lp4144
sS'574 702 0.0'
p4145
(lp4146
sS'373 369 1.57079632679'
p4147
(lp4148
sS'557 523 1.57079632679'
p4149
(lp4150
sS'604 617 1.57079632679'
p4151
(lp4152
sS'649 50 1.57079632679'
p4153
(lp4154
sS'219 565 1.57079632679'
p4155
(lp4156
sS'339 357 0.0'
p4157
(lp4158
sS'564 170 1.57079632679'
p4159
(lp4160
sS'431 410 0.0'
p4161
(lp4162
sS'260 439 1.57079632679'
p4163
(lp4164
sS'531 731 1.57079632679'
p4165
(lp4166
sS'257 601 1.57079632679'
p4167
(lp4168
sS'573 342 0.0'
p4169
(lp4170
sS'100 103 1.57079632679'
p4171
(lp4172
sS'62 410 1.57079632679'
p4173
(lp4174
sS'278 129 0.0'
p4175
(lp4176
sS'268 491 1.57079632679'
p4177
(lp4178
sS'538 401 1.57079632679'
p4179
(lp4180
sS'319 156 0.0'
p4181
(lp4182
sS'151 130 1.57079632679'
p4183
(lp4184
sS'264 111 0.0'
p4185
(lp4186
sS'195 326 0.0'
p4187
(lp4188
sS'299 274 1.57079632679'
p4189
(lp4190
sS'676 573 0.0'
p4191
(lp4192
sS'424 502 0.0'
p4193
(lp4194
sS'360 661 1.57079632679'
p4195
(lp4196
sS'384 446 0.0'
p4197
(lp4198
sS'360 285 1.57079632679'
p4199
(lp4200
sS'474 455 1.57079632679'
p4201
(lp4202
sS'411 608 0.0'
p4203
(lp4204
sS'126 723 1.57079632679'
p4205
(lp4206
sS'424 559 0.0'
p4207
(lp4208
sS'203 518 0.0'
p4209
(lp4210
sS'81 182 1.57079632679'
p4211
(lp4212
sS'201 338 1.57079632679'
p4213
(lp4214
sS'364 173 1.57079632679'
p4215
(lp4216
sS'65 401 0.0'
p4217
(lp4218
sS'648 728 1.57079632679'
p4219
(lp4220
sS'700 719 1.57079632679'
p4221
(lp4222
sS'423 357 1.57079632679'
p4223
(lp4224
sS'386 637 1.57079632679'
p4225
(lp4226
sS'508 171 1.57079632679'
p4227
(lp4228
sS'78 131 0.0'
p4229
(lp4230
sS'658 553 0.0'
p4231
(lp4232
sS'208 384 0.0'
p4233
(lp4234
sS'266 395 1.57079632679'
p4235
(lp4236
sS'343 159 0.0'
p4237
(lp4238
sS'352 311 0.0'
p4239
(lp4240
sS'492 713 0.0'
p4241
(lp4242
sS'98 566 0.0'
p4243
(lp4244
sS'68 453 1.57079632679'
p4245
(lp4246
sS'190 210 0.0'
p4247
(lp4248
sS'281 402 1.57079632679'
p4249
(lp4250
sS'305 279 1.57079632679'
p4251
(lp4252
sS'133 716 0.0'
p4253
(lp4254
sS'217 269 0.0'
p4255
(lp4256
sS'700 405 0.0'
p4257
(lp4258
sS'464 433 0.0'
p4259
(lp4260
sS'165 464 1.57079632679'
p4261
(lp4262
sS'127 566 0.0'
p4263
(lp4264
sS'199 416 1.57079632679'
p4265
(lp4266
sS'440 293 1.57079632679'
p4267
(lp4268
sS'658 110 0.0'
p4269
(lp4270
sS'615 86 1.57079632679'
p4271
(lp4272
sS'347 370 1.57079632679'
p4273
(lp4274
sS'100 585 0.0'
p4275
(lp4276
sS'196 237 0.0'
p4277
(lp4278
sS'580 302 1.57079632679'
p4279
(lp4280
sS'357 428 0.0'
p4281
(lp4282
sS'553 106 0.0'
p4283
(lp4284
sS'99 651 1.57079632679'
p4285
(lp4286
sS'430 119 1.57079632679'
p4287
(lp4288
sS'658 533 0.0'
p4289
(lp4290
sS'276 383 1.57079632679'
p4291
(lp4292
sS'395 285 0.0'
p4293
(lp4294
sS'250 626 0.0'
p4295
(lp4296
sS'637 280 0.0'
p4297
(lp4298
sS'239 104 0.0'
p4299
(lp4300
sS'672 79 0.0'
p4301
(lp4302
sS'341 306 0.0'
p4303
(lp4304
sS'151 104 1.57079632679'
p4305
(lp4306
sS'376 600 0.0'
p4307
(lp4308
sS'241 680 0.0'
p4309
(lp4310
sS'92 464 0.0'
p4311
(lp4312
sS'537 377 1.57079632679'
p4313
(lp4314
sS'91 451 1.57079632679'
p4315
(lp4316
sS'418 335 0.0'
p4317
(lp4318
sS'467 678 0.0'
p4319
(lp4320
sS'375 288 0.0'
p4321
(lp4322
sS'56 177 0.0'
p4323
(lp4324
sS'407 111 0.0'
p4325
(lp4326
sS'399 76 0.0'
p4327
(lp4328
sS'201 426 0.0'
p4329
(lp4330
sS'657 102 1.57079632679'
p4331
(lp4332
sS'126 273 0.0'
p4333
(lp4334
sS'100 210 0.0'
p4335
(lp4336
sS'582 571 0.0'
p4337
(lp4338
sS'399 127 1.57079632679'
p4339
(lp4340
sS'334 57 1.57079632679'
p4341
(lp4342
sS'67 486 1.57079632679'
p4343
(lp4344
sS'411 468 0.0'
p4345
(lp4346
sS'217 495 1.57079632679'
p4347
(lp4348
sS'678 84 1.57079632679'
p4349
(lp4350
sS'265 621 1.57079632679'
p4351
(lp4352
sS'165 258 1.57079632679'
p4353
(lp4354
sS'522 548 0.0'
p4355
(lp4356
sS'157 70 0.0'
p4357
(lp4358
sS'575 571 1.57079632679'
p4359
(lp4360
sS'550 715 1.57079632679'
p4361
(lp4362
sS'264 663 0.0'
p4363
(lp4364
sS'629 415 0.0'
p4365
(lp4366
sS'583 382 1.57079632679'
p4367
(lp4368
sS'107 136 1.57079632679'
p4369
(lp4370
sS'660 130 1.57079632679'
p4371
(lp4372
sS'692 175 1.57079632679'
p4373
(lp4374
sS'400 641 1.57079632679'
p4375
(lp4376
sS'434 494 0.0'
p4377
(lp4378
sS'142 286 1.57079632679'
p4379
(lp4380
sS'220 89 1.57079632679'
p4381
(lp4382
sS'574 421 1.57079632679'
p4383
(lp4384
sS'665 721 1.57079632679'
p4385
(lp4386
sS'256 656 1.57079632679'
p4387
(lp4388
sS'225 496 1.57079632679'
p4389
(lp4390
sS'224 716 0.0'
p4391
(lp4392
sS'605 348 0.0'
p4393
(lp4394
sS'472 585 0.0'
p4395
(lp4396
sS'214 97 1.57079632679'
p4397
(lp4398
sS'527 153 1.57079632679'
p4399
(lp4400
sS'360 517 0.0'
p4401
(lp4402
sS'136 249 0.0'
p4403
(lp4404
sS'689 64 1.57079632679'
p4405
(lp4406
sS'539 156 0.0'
p4407
(lp4408
sS'221 438 0.0'
p4409
(lp4410
sS'369 317 1.57079632679'
p4411
(lp4412
sS'167 471 0.0'
p4413
(lp4414
sS'260 467 0.0'
p4415
(lp4416
sS'660 89 0.0'
p4417
(lp4418
sS'219 482 0.0'
p4419
(lp4420
sS'258 578 1.57079632679'
p4421
(lp4422
sS'409 411 0.0'
p4423
(lp4424
sS'94 164 0.0'
p4425
(lp4426
sS'605 496 1.57079632679'
p4427
(lp4428
sS'368 645 0.0'
p4429
(lp4430
sS'234 110 1.57079632679'
p4431
(lp4432
sS'343 84 0.0'
p4433
(lp4434
sS'655 580 1.57079632679'
p4435
(lp4436
sS'132 289 1.57079632679'
p4437
(lp4438
sS'331 355 0.0'
p4439
(lp4440
sS'165 199 0.0'
p4441
(lp4442
sS'431 401 0.0'
p4443
(lp4444
sS'684 397 1.57079632679'
p4445
(lp4446
sS'345 402 1.57079632679'
p4447
(lp4448
sS'337 164 1.57079632679'
p4449
(lp4450
sS'658 718 0.0'
p4451
(lp4452
sS'693 149 1.57079632679'
p4453
(lp4454
sS'212 461 1.57079632679'
p4455
(lp4456
sS'455 317 1.57079632679'
p4457
(lp4458
sS'232 406 1.57079632679'
p4459
(lp4460
sS'615 70 0.0'
p4461
(lp4462
sS'183 465 1.57079632679'
p4463
(lp4464
sS'663 431 0.0'
p4465
(lp4466
sS'406 603 1.57079632679'
p4467
(lp4468
sS'230 122 1.57079632679'
p4469
(lp4470
sS'648 451 0.0'
p4471
(lp4472
sS'147 450 1.57079632679'
p4473
(lp4474
sS'61 518 1.57079632679'
p4475
(lp4476
sS'460 134 1.57079632679'
p4477
(lp4478
sS'237 279 1.57079632679'
p4479
(lp4480
sS'685 602 0.0'
p4481
(lp4482
sS'64 680 0.0'
p4483
(lp4484
sS'534 369 1.57079632679'
p4485
(lp4486
sS'569 678 0.0'
p4487
(lp4488
sS'414 707 0.0'
p4489
(lp4490
sS'593 410 0.0'
p4491
(lp4492
sS'138 92 0.0'
p4493
(lp4494
sS'184 532 0.0'
p4495
(lp4496
sS'391 132 1.57079632679'
p4497
(lp4498
sS'249 89 1.57079632679'
p4499
(lp4500
sS'159 448 1.57079632679'
p4501
(lp4502
sS'179 75 1.57079632679'
p4503
(lp4504
sS'257 640 1.57079632679'
p4505
(lp4506
sS'535 722 1.57079632679'
p4507
(lp4508
sS'196 285 1.57079632679'
p4509
(lp4510
sS'692 565 1.57079632679'
p4511
(lp4512
sS'634 72 1.57079632679'
p4513
(lp4514
sS'540 579 1.57079632679'
p4515
(lp4516
sS'659 519 1.57079632679'
p4517
(lp4518
sS'211 194 0.0'
p4519
(lp4520
sS'495 671 0.0'
p4521
(lp4522
sS'573 710 1.57079632679'
p4523
(lp4524
sS'609 293 1.57079632679'
p4525
(lp4526
sS'410 74 0.0'
p4527
(lp4528
sS'656 694 0.0'
p4529
(lp4530
sS'55 659 0.0'
p4531
(lp4532
sS'668 296 1.57079632679'
p4533
(lp4534
sS'390 114 1.57079632679'
p4535
(lp4536
sS'464 73 1.57079632679'
p4537
(lp4538
sS'246 178 0.0'
p4539
(lp4540
sS'133 561 1.57079632679'
p4541
(lp4542
sS'460 326 1.57079632679'
p4543
(lp4544
sS'247 302 0.0'
p4545
(lp4546
sS'338 339 0.0'
p4547
(lp4548
sS'64 418 0.0'
p4549
(lp4550
sS'557 91 0.0'
p4551
(lp4552
sS'680 684 1.57079632679'
p4553
(lp4554
sS'472 691 1.57079632679'
p4555
(lp4556
sS'381 425 1.57079632679'
p4557
(lp4558
sS'243 396 1.57079632679'
p4559
(lp4560
sS'114 512 1.57079632679'
p4561
(lp4562
sS'148 611 0.0'
p4563
(lp4564
sS'106 659 0.0'
p4565
(lp4566
sS'186 719 0.0'
p4567
(lp4568
sS'390 357 1.57079632679'
p4569
(lp4570
sS'336 406 0.0'
p4571
(lp4572
sS'536 438 0.0'
p4573
(lp4574
sS'146 569 1.57079632679'
p4575
(lp4576
sS'700 72 0.0'
p4577
(lp4578
sS'213 435 0.0'
p4579
(lp4580
sS'612 708 1.57079632679'
p4581
(lp4582
sS'114 265 1.57079632679'
p4583
(lp4584
sS'451 94 1.57079632679'
p4585
(lp4586
sS'258 592 1.57079632679'
p4587
(lp4588
sS'516 520 1.57079632679'
p4589
(lp4590
sS'129 542 1.57079632679'
p4591
(lp4592
sS'125 100 0.0'
p4593
(lp4594
sS'414 55 0.0'
p4595
(lp4596
sS'76 570 1.57079632679'
p4597
(lp4598
sS'469 291 0.0'
p4599
(lp4600
sS'266 596 0.0'
p4601
(lp4602
sS'110 443 0.0'
p4603
(lp4604
sS'656 407 1.57079632679'
p4605
(lp4606
sS'328 389 0.0'
p4607
(lp4608
sS'464 567 1.57079632679'
p4609
(lp4610
sS'430 586 1.57079632679'
p4611
(lp4612
sS'406 593 1.57079632679'
p4613
(lp4614
sS'137 526 1.57079632679'
p4615
(lp4616
sS'100 307 0.0'
p4617
(lp4618
sS'604 507 1.57079632679'
p4619
(lp4620
sS'342 385 1.57079632679'
p4621
(lp4622
sS'369 283 1.57079632679'
p4623
(lp4624
sS'368 667 1.57079632679'
p4625
(lp4626
sS'414 447 0.0'
p4627
(lp4628
sS'229 97 1.57079632679'
p4629
(lp4630
sS'92 674 0.0'
p4631
(lp4632
sS'254 691 0.0'
p4633
(lp4634
sS'55 79 0.0'
p4635
(lp4636
sS'226 665 0.0'
p4637
(lp4638
sS'83 151 0.0'
p4639
(lp4640
sS'320 366 1.57079632679'
p4641
(lp4642
sS'584 114 0.0'
p4643
(lp4644
sS'548 448 0.0'
p4645
(lp4646
sS'267 55 0.0'
p4647
(lp4648
sS'233 301 1.57079632679'
p4649
(lp4650
sS'409 86 0.0'
p4651
(lp4652
sS'227 508 1.57079632679'
p4653
(lp4654
sS'245 555 0.0'
p4655
(lp4656
sS'255 518 0.0'
p4657
(lp4658
sS'63 142 1.57079632679'
p4659
(lp4660
sS'84 454 0.0'
p4661
(lp4662
sS'700 696 0.0'
p4663
(lp4664
sS'124 673 1.57079632679'
p4665
(lp4666
sS'255 168 1.57079632679'
p4667
(lp4668
sS'345 135 0.0'
p4669
(lp4670
sS'129 462 0.0'
p4671
(lp4672
sS'110 291 0.0'
p4673
(lp4674
sS'229 234 0.0'
p4675
(lp4676
sS'557 694 0.0'
p4677
(lp4678
sS'242 307 1.57079632679'
p4679
(lp4680
sS'441 69 0.0'
p4681
(lp4682
sS'656 274 0.0'
p4683
(lp4684
sS'447 128 1.57079632679'
p4685
(lp4686
sS'299 359 1.57079632679'
p4687
(lp4688
sS'201 311 0.0'
p4689
(lp4690
sS'452 515 1.57079632679'
p4691
(lp4692
sS'80 680 0.0'
p4693
(lp4694
sS'650 299 0.0'
p4695
(lp4696
sS'200 75 1.57079632679'
p4697
(lp4698
sS'254 586 1.57079632679'
p4699
(lp4700
sS'203 297 0.0'
p4701
(lp4702
sS'567 119 0.0'
p4703
(lp4704
sS'528 425 1.57079632679'
p4705
(lp4706
sS'414 344 1.57079632679'
p4707
(lp4708
sS'524 415 0.0'
p4709
(lp4710
sS'200 225 0.0'
p4711
(lp4712
sS'272 327 0.0'
p4713
(lp4714
sS'444 693 1.57079632679'
p4715
(lp4716
sS'667 556 1.57079632679'
p4717
(lp4718
sS'646 591 0.0'
p4719
(lp4720
sS'70 429 1.57079632679'
p4721
(lp4722
sS'232 273 0.0'
p4723
(lp4724
sS'637 622 1.57079632679'
p4725
(lp4726
sS'220 706 0.0'
p4727
(lp4728
sS'210 708 0.0'
p4729
(lp4730
sS'633 407 0.0'
p4731
(lp4732
sS'61 298 1.57079632679'
p4733
(lp4734
sS'452 453 1.57079632679'
p4735
(lp4736
sS'676 373 1.57079632679'
p4737
(lp4738
sS'278 392 0.0'
p4739
(lp4740
sS'156 550 1.57079632679'
p4741
(lp4742
sS'560 332 0.0'
p4743
(lp4744
sS'396 648 1.57079632679'
p4745
(lp4746
sS'700 646 0.0'
p4747
(lp4748
sS'100 113 1.57079632679'
p4749
(lp4750
sS'141 136 1.57079632679'
p4751
(lp4752
sS'76 150 1.57079632679'
p4753
(lp4754
sS'250 682 1.57079632679'
p4755
(lp4756
sS'319 326 0.0'
p4757
(lp4758
sS'502 117 0.0'
p4759
(lp4760
sS'213 303 1.57079632679'
p4761
(lp4762
sS'572 136 1.57079632679'
p4763
(lp4764
sS'431 712 0.0'
p4765
(lp4766
sS'179 505 0.0'
p4767
(lp4768
sS'640 606 1.57079632679'
p4769
(lp4770
sS'66 512 1.57079632679'
p4771
(lp4772
sS'364 327 1.57079632679'
p4773
(lp4774
sS'687 709 1.57079632679'
p4775
(lp4776
sS'276 270 0.0'
p4777
(lp4778
sS'647 549 0.0'
p4779
(lp4780
sS'381 272 1.57079632679'
p4781
(lp4782
sS'101 457 0.0'
p4783
(lp4784
sS'598 345 0.0'
p4785
(lp4786
sS'85 650 0.0'
p4787
(lp4788
sS'197 166 0.0'
p4789
(lp4790
sS'424 328 0.0'
p4791
(lp4792
sS'645 74 0.0'
p4793
(lp4794
sS'698 638 1.57079632679'
p4795
(lp4796
sS'638 632 1.57079632679'
p4797
(lp4798
sS'406 567 1.57079632679'
p4799
(lp4800
sS'261 131 0.0'
p4801
(lp4802
sS'459 676 0.0'
p4803
(lp4804
sS'325 142 0.0'
p4805
(lp4806
sS'78 98 0.0'
p4807
(lp4808
sS'172 71 0.0'
p4809
(lp4810
sS'398 150 0.0'
p4811
(lp4812
sS'473 718 1.57079632679'
p4813
(lp4814
sS'223 150 1.57079632679'
p4815
(lp4816
sS'146 528 0.0'
p4817
(lp4818
sS'694 681 0.0'
p4819
(lp4820
sS'174 92 1.57079632679'
p4821
(lp4822
sS'174 290 0.0'
p4823
(lp4824
sS'125 530 0.0'
p4825
(lp4826
sS'168 728 0.0'
p4827
(lp4828
sS'359 685 1.57079632679'
p4829
(lp4830
sS'122 602 1.57079632679'
p4831
(lp4832
sS'609 330 0.0'
p4833
(lp4834
sS'611 650 1.57079632679'
p4835
(lp4836
sS'237 598 1.57079632679'
p4837
(lp4838
sS'476 110 1.57079632679'
p4839
(lp4840
sS'349 129 1.57079632679'
p4841
(lp4842
sS'225 305 0.0'
p4843
(lp4844
sS'670 524 1.57079632679'
p4845
(lp4846
sS'538 548 1.57079632679'
p4847
(lp4848
sS'168 534 0.0'
p4849
(lp4850
sS'205 502 0.0'
p4851
(lp4852
sS'210 686 0.0'
p4853
(lp4854
sS'92 580 0.0'
p4855
(lp4856
sS'447 303 1.57079632679'
p4857
(lp4858
sS'216 508 0.0'
p4859
(lp4860
sS'657 456 1.57079632679'
p4861
(lp4862
sS'112 95 0.0'
p4863
(lp4864
sS'212 674 0.0'
p4865
(lp4866
sS'392 319 1.57079632679'
p4867
(lp4868
sS'259 431 0.0'
p4869
(lp4870
sS'258 609 0.0'
p4871
(lp4872
sS'390 451 0.0'
p4873
(lp4874
sS'483 583 0.0'
p4875
(lp4876
sS'592 113 0.0'
p4877
(lp4878
sS'498 722 0.0'
p4879
(lp4880
sS'135 705 0.0'
p4881
(lp4882
sS'670 424 1.57079632679'
p4883
(lp4884
sS'450 679 0.0'
p4885
(lp4886
sS'66 164 1.57079632679'
p4887
(lp4888
sS'109 641 0.0'
p4889
(lp4890
sS'104 633 0.0'
p4891
(lp4892
sS'663 275 1.57079632679'
p4893
(lp4894
sS'236 588 1.57079632679'
p4895
(lp4896
sS'272 276 0.0'
p4897
(lp4898
sS'51 405 0.0'
p4899
(lp4900
sS'126 446 0.0'
p4901
(lp4902
sS'84 168 1.57079632679'
p4903
(lp4904
sS'433 361 0.0'
p4905
(lp4906
sS'644 101 1.57079632679'
p4907
(lp4908
sS'244 346 1.57079632679'
p4909
(lp4910
sS'484 696 0.0'
p4911
(lp4912
sS'614 287 1.57079632679'
p4913
(lp4914
sS'584 677 0.0'
p4915
(lp4916
sS'60 186 0.0'
p4917
(lp4918
sS'207 96 1.57079632679'
p4919
(lp4920
sS'528 407 1.57079632679'
p4921
(lp4922
sS'408 577 1.57079632679'
p4923
(lp4924
sS'487 675 1.57079632679'
p4925
(lp4926
sS'102 710 1.57079632679'
p4927
(lp4928
sS'173 279 1.57079632679'
p4929
(lp4930
sS'201 137 0.0'
p4931
(lp4932
sS'612 305 1.57079632679'
p4933
(lp4934
sS'638 581 1.57079632679'
p4935
(lp4936
sS'261 301 0.0'
p4937
(lp4938
sS'552 492 1.57079632679'
p4939
(lp4940
sS'390 350 1.57079632679'
p4941
(lp4942
sS'571 632 0.0'
p4943
(lp4944
sS'599 367 1.57079632679'
p4945
(lp4946
sS'102 240 1.57079632679'
p4947
(lp4948
sS'411 647 0.0'
p4949
(lp4950
sS'208 716 1.57079632679'
p4951
(lp4952
sS'319 147 1.57079632679'
p4953
(lp4954
sS'237 686 1.57079632679'
p4955
(lp4956
sS'455 301 0.0'
p4957
(lp4958
sS'103 192 0.0'
p4959
(lp4960
sS'410 686 1.57079632679'
p4961
(lp4962
sS'578 328 0.0'
p4963
(lp4964
sS'574 78 1.57079632679'
p4965
(lp4966
sS'673 560 1.57079632679'
p4967
(lp4968
sS'613 54 0.0'
p4969
(lp4970
sS'650 557 1.57079632679'
p4971
(lp4972
sS'436 558 1.57079632679'
p4973
(lp4974
sS'429 97 1.57079632679'
p4975
(lp4976
sS'93 591 1.57079632679'
p4977
(lp4978
sS'453 530 1.57079632679'
p4979
(lp4980
sS'608 383 1.57079632679'
p4981
(lp4982
sS'60 481 0.0'
p4983
(lp4984
sS'387 342 1.57079632679'
p4985
(lp4986
sS'556 451 0.0'
p4987
(lp4988
sS'627 147 0.0'
p4989
(lp4990
sS'649 567 1.57079632679'
p4991
(lp4992
sS'240 461 0.0'
p4993
(lp4994
sS'343 52 0.0'
p4995
(lp4996
sS'346 61 1.57079632679'
p4997
(lp4998
sS'194 424 1.57079632679'
p4999
(lp5000
sS'598 384 0.0'
p5001
(lp5002
sS'168 271 1.57079632679'
p5003
(lp5004
sS'540 563 0.0'
p5005
(lp5006
sS'222 185 0.0'
p5007
(lp5008
sS'670 715 0.0'
p5009
(lp5010
sS'527 580 0.0'
p5011
(lp5012
sS'312 374 1.57079632679'
p5013
(lp5014
sS'543 344 1.57079632679'
p5015
(lp5016
sS'492 130 1.57079632679'
p5017
(lp5018
sS'651 67 1.57079632679'
p5019
(lp5020
sS'691 288 0.0'
p5021
(lp5022
sS'269 65 1.57079632679'
p5023
(lp5024
sS'491 648 0.0'
p5025
(lp5026
sS'369 447 0.0'
p5027
(lp5028
sS'111 728 0.0'
p5029
(lp5030
sS'384 167 0.0'
p5031
(lp5032
sS'572 90 1.57079632679'
p5033
(lp5034
sS'659 469 1.57079632679'
p5035
(lp5036
sS'273 404 1.57079632679'
p5037
(lp5038
sS'125 294 0.0'
p5039
(lp5040
sS'482 153 1.57079632679'
p5041
(lp5042
sS'486 414 1.57079632679'
p5043
(lp5044
sS'50 716 1.57079632679'
p5045
(lp5046
sS'109 415 0.0'
p5047
(lp5048
sS'54 495 0.0'
p5049
(lp5050
sS'48 479 1.57079632679'
p5051
(lp5052
sS'576 169 1.57079632679'
p5053
(lp5054
sS'390 173 1.57079632679'
p5055
(lp5056
sS'611 718 0.0'
p5057
(lp5058
sS'340 299 1.57079632679'
p5059
(lp5060
sS'412 161 1.57079632679'
p5061
(lp5062
sS'319 403 0.0'
p5063
(lp5064
sS'484 140 0.0'
p5065
(lp5066
sS'500 678 0.0'
p5067
(lp5068
sS'334 331 1.57079632679'
p5069
(lp5070
sS'398 324 1.57079632679'
p5071
(lp5072
sS'497 103 1.57079632679'
p5073
(lp5074
sS'155 285 0.0'
p5075
(lp5076
sS'453 410 0.0'
p5077
(lp5078
sS'252 109 0.0'
p5079
(lp5080
sS'198 211 0.0'
p5081
(lp5082
sS'251 308 1.57079632679'
p5083
(lp5084
sS'295 370 0.0'
p5085
(lp5086
sS'198 504 1.57079632679'
p5087
(lp5088
sS'443 135 1.57079632679'
p5089
(lp5090
sS'390 100 1.57079632679'
p5091
(lp5092
sS'313 386 0.0'
p5093
(lp5094
sS'72 72 0.0'
p5095
(lp5096
sS'361 441 1.57079632679'
p5097
(lp5098
sS'424 350 1.57079632679'
p5099
(lp5100
sS'629 126 0.0'
p5101
(lp5102
sS'241 46 0.0'
p5103
(lp5104
sS'475 164 1.57079632679'
p5105
(lp5106
sS'247 516 0.0'
p5107
(lp5108
sS'406 709 0.0'
p5109
(lp5110
sS'79 45 0.0'
p5111
(lp5112
sS'357 413 0.0'
p5113
(lp5114
sS'368 179 0.0'
p5115
(lp5116
sS'582 597 1.57079632679'
p5117
(lp5118
sS'175 412 1.57079632679'
p5119
(lp5120
sS'478 684 0.0'
p5121
(lp5122
sS'468 662 1.57079632679'
p5123
(lp5124
sS'93 138 0.0'
p5125
(lp5126
sS'63 647 0.0'
p5127
(lp5128
sS'596 687 0.0'
p5129
(lp5130
sS'667 578 0.0'
p5131
(lp5132
sS'72 108 0.0'
p5133
(lp5134
sS'208 599 0.0'
p5135
(lp5136
sS'111 708 0.0'
p5137
(lp5138
sS'222 97 0.0'
p5139
(lp5140
sS'444 98 0.0'
p5141
(lp5142
sS'582 720 0.0'
p5143
(lp5144
sS'211 550 0.0'
p5145
(lp5146
sS'499 470 0.0'
p5147
(lp5148
sS'322 44 1.57079632679'
p5149
(lp5150
sS'51 280 0.0'
p5151
(lp5152
sS'373 587 0.0'
p5153
(lp5154
sS'268 712 0.0'
p5155
(lp5156
sS'558 439 1.57079632679'
p5157
(lp5158
sS'318 311 1.57079632679'
p5159
(lp5160
sS'164 518 0.0'
p5161
(lp5162
sS'186 269 0.0'
p5163
(lp5164
sS'703 316 1.57079632679'
p5165
(lp5166
sS'239 728 1.57079632679'
p5167
(lp5168
sS'480 443 0.0'
p5169
(lp5170
sS'241 411 0.0'
p5171
(lp5172
sS'463 141 1.57079632679'
p5173
(lp5174
sS'220 613 0.0'
p5175
(lp5176
sS'681 522 1.57079632679'
p5177
(lp5178
sS'595 103 1.57079632679'
p5179
(lp5180
sS'511 584 0.0'
p5181
(lp5182
sS'631 517 0.0'
p5183
(lp5184
sS'290 326 0.0'
p5185
(lp5186
sS'679 540 0.0'
p5187
(lp5188
sS'426 390 0.0'
p5189
(lp5190
sS'158 205 1.57079632679'
p5191
(lp5192
sS'126 133 0.0'
p5193
(lp5194
sS'445 484 1.57079632679'
p5195
(lp5196
sS'257 381 1.57079632679'
p5197
(lp5198
sS'582 319 0.0'
p5199
(lp5200
sS'301 406 1.57079632679'
p5201
(lp5202
sS'380 455 1.57079632679'
p5203
(lp5204
sS'646 90 1.57079632679'
p5205
(lp5206
sS'53 575 1.57079632679'
p5207
(lp5208
sS'236 252 1.57079632679'
p5209
(lp5210
sS'380 81 0.0'
p5211
(lp5212
sS'226 433 0.0'
p5213
(lp5214
sS'522 468 0.0'
p5215
(lp5216
sS'49 269 1.57079632679'
p5217
(lp5218
sS'268 94 1.57079632679'
p5219
(lp5220
sS'260 448 0.0'
p5221
(lp5222
sS'370 388 1.57079632679'
p5223
(lp5224
sS'339 62 1.57079632679'
p5225
(lp5226
sS'487 564 0.0'
p5227
(lp5228
sS'312 293 1.57079632679'
p5229
(lp5230
sS'137 238 0.0'
p5231
(lp5232
sS'130 122 1.57079632679'
p5233
(lp5234
s.