(dp0
S'553 550 1.57079632679'
p1
(lp2
sS'492 131 0.0'
p3
(lp4
sS'674 282 0.0'
p5
(lp6
sS'246 479 0.0'
p7
(lp8
sS'64 660 1.57079632679'
p9
(lp10
sS'184 229 0.0'
p11
(lp12
sS'255 295 0.0'
p13
(lp14
sS'390 79 1.57079632679'
p15
(lp16
sS'124 228 1.57079632679'
p17
(lp18
sS'110 691 1.57079632679'
p19
(lp20
sS'395 429 0.0'
p21
(lp22
sS'321 149 0.0'
p23
(lp24
sS'152 594 1.57079632679'
p25
(lp26
sS'196 293 1.57079632679'
p27
(lp28
sS'132 546 0.0'
p29
(lp30
sS'448 321 0.0'
p31
(lp32
sS'192 566 0.0'
p33
(lp34
sS'87 561 0.0'
p35
(lp36
sS'89 683 1.57079632679'
p37
(lp38
sS'103 697 1.57079632679'
p39
(lp40
sS'418 396 0.0'
p41
(lp42
sS'691 395 0.0'
p43
(lp44
sS'187 420 0.0'
p45
(lp46
sS'479 463 0.0'
p47
(lp48
sS'421 133 0.0'
p49
(lp50
sS'176 437 1.57079632679'
p51
(lp52
sS'150 277 1.57079632679'
p53
(lp54
sS'419 99 1.57079632679'
p55
(lp56
sS'298 303 0.0'
p57
(lp58
sS'397 625 0.0'
p59
(lp60
sS'438 682 0.0'
p61
(lp62
sS'130 288 1.57079632679'
p63
(lp64
sS'674 706 1.57079632679'
p65
(lp66
sS'84 129 1.57079632679'
p67
(lp68
sS'373 427 0.0'
p69
(lp70
sS'659 571 1.57079632679'
p71
(lp72
sS'609 379 1.57079632679'
p73
(lp74
sS'205 68 1.57079632679'
p75
(lp76
sS'79 645 0.0'
p77
(lp78
sS'610 100 0.0'
p79
(lp80
sS'522 457 1.57079632679'
p81
(lp82
sS'298 140 1.57079632679'
p83
(lp84
sS'381 580 1.57079632679'
p85
(lp86
sS'226 79 0.0'
p87
(lp88
sS'98 238 1.57079632679'
p89
(lp90
sS'62 175 0.0'
p91
(lp92
sS'367 276 0.0'
p93
(lp94
sS'122 303 0.0'
p95
(lp96
sS'678 524 0.0'
p97
(lp98
sS'376 434 1.57079632679'
p99
(lp100
sS'244 360 1.57079632679'
p101
(lp102
sS'58 535 1.57079632679'
p103
(lp104
sS'62 450 1.57079632679'
p105
(lp106
sS'594 424 1.57079632679'
p107
(lp108
sS'423 336 1.57079632679'
p109
(lp110
sS'76 155 0.0'
p111
(lp112
sS'416 128 0.0'
p113
(lp114
sS'193 411 0.0'
p115
(lp116
sS'584 288 0.0'
p117
(lp118
sS'418 78 0.0'
p119
(lp120
sS'568 420 1.57079632679'
p121
(lp122
sS'459 581 0.0'
p123
(lp124
sS'119 524 1.57079632679'
p125
(lp126
sS'627 602 0.0'
p127
(lp128
sS'53 720 1.57079632679'
p129
(lp130
sS'650 619 0.0'
p131
(lp132
sS'209 93 1.57079632679'
p133
(lp134
sS'183 300 0.0'
p135
(lp136
sS'130 252 1.57079632679'
p137
(lp138
sS'405 344 1.57079632679'
p139
(lp140
sS'657 63 0.0'
p141
(lp142
sS'207 411 0.0'
p143
(lp144
sS'321 297 1.57079632679'
p145
(lp146
sS'112 461 0.0'
p147
(lp148
sS'343 325 1.57079632679'
p149
(lp150
sS'95 63 0.0'
p151
(lp152
sS'356 169 1.57079632679'
p153
(lp154
sS'235 596 0.0'
p155
(lp156
sS'453 121 1.57079632679'
p157
(lp158
sS'642 95 0.0'
p159
(lp160
sS'288 392 1.57079632679'
p161
(lp162
sS'246 173 0.0'
p163
(lp164
sS'211 559 0.0'
p165
(lp166
sS'364 649 1.57079632679'
p167
(lp168
sS'242 380 0.0'
p169
(lp170
sS'590 407 0.0'
p171
(lp172
sS'150 703 1.57079632679'
p173
(lp174
sS'592 633 1.57079632679'
p175
(lp176
sS'156 284 1.57079632679'
p177
(lp178
sS'556 333 0.0'
p179
(lp180
sS'194 250 0.0'
p181
(lp182
sS'638 504 0.0'
p183
(lp184
sS'127 298 0.0'
p185
(lp186
sS'232 105 1.57079632679'
p187
(lp188
sS'468 724 0.0'
p189
(lp190
sS'385 74 0.0'
p191
(lp192
sS'279 353 1.57079632679'
p193
(lp194
sS'178 93 0.0'
p195
(lp196
sS'619 59 0.0'
p197
(lp198
sS'223 301 0.0'
p199
(lp200
sS'504 437 1.57079632679'
p201
(lp202
sS'645 152 1.57079632679'
p203
(lp204
sS'623 423 0.0'
p205
(lp206
sS'100 178 1.57079632679'
p207
(lp208
sS'683 413 0.0'
p209
(lp210
sS'417 306 1.57079632679'
p211
(lp212
sS'238 458 1.57079632679'
p213
(lp214
sS'344 343 0.0'
p215
(lp216
sS'468 100 1.57079632679'
p217
(lp218
sS'201 435 0.0'
p219
(lp220
sS'432 294 1.57079632679'
p221
(lp222
sS'246 392 0.0'
p223
(lp224
sS'350 152 1.57079632679'
p225
(lp226
sS'91 183 0.0'
p227
(lp228
sS'110 243 1.57079632679'
p229
(lp230
sS'180 63 1.57079632679'
p231
(lp232
sS'364 50 0.0'
p233
(lp234
sS'640 599 1.57079632679'
p235
(lp236
sS'106 64 1.57079632679'
p237
(lp238
sS'632 66 0.0'
p239
(lp240
sS'465 318 1.57079632679'
p241
(lp242
sS'257 484 1.57079632679'
p243
(lp244
sS'601 711 0.0'
p245
(lp246
sS'604 363 0.0'
p247
(lp248
sS'595 370 1.57079632679'
p249
(lp250
sS'88 66 1.57079632679'
p251
(lp252
sS'640 106 1.57079632679'
p253
(lp254
sS'485 577 0.0'
p255
(lp256
sS'65 554 1.57079632679'
p257
(lp258
sS'567 712 0.0'
p259
(lp260
sS'265 301 1.57079632679'
p261
(lp262
sS'224 277 1.57079632679'
p263
(lp264
sS'521 533 1.57079632679'
p265
(lp266
sS'506 450 1.57079632679'
p267
(lp268
sS'659 427 0.0'
p269
(lp270
sS'422 570 0.0'
p271
(lp272
sS'198 271 0.0'
p273
(lp274
sS'455 321 1.57079632679'
p275
(lp276
sS'568 696 1.57079632679'
p277
(lp278
sS'600 69 0.0'
p279
(lp280
sS'696 703 1.57079632679'
p281
(lp282
sS'673 55 1.57079632679'
p283
(lp284
sS'245 669 0.0'
p285
(lp286
sS'650 537 1.57079632679'
p287
(lp288
sS'264 449 1.57079632679'
p289
(lp290
sS'484 108 0.0'
p291
(lp292
sS'209 117 1.57079632679'
p293
(lp294
sS'379 616 1.57079632679'
p295
(lp296
sS'398 122 1.57079632679'
p297
(lp298
sS'179 220 1.57079632679'
p299
(lp300
sS'152 719 1.57079632679'
p301
(lp302
sS'255 109 0.0'
p303
(lp304
sS'234 398 0.0'
p305
(lp306
sS'512 419 0.0'
p307
(lp308
sS'220 441 1.57079632679'
p309
(lp310
sS'569 431 0.0'
p311
(lp312
sS'566 147 1.57079632679'
p313
(lp314
sS'81 717 0.0'
p315
(lp316
sS'700 531 1.57079632679'
p317
(lp318
sS'219 449 1.57079632679'
p319
(lp320
sS'252 533 1.57079632679'
p321
(lp322
sS'422 320 0.0'
p323
(lp324
sS'257 565 0.0'
p325
(lp326
sS'209 48 0.0'
p327
(lp328
sS'257 496 0.0'
p329
(lp330
sS'161 279 0.0'
p331
(lp332
sS'281 321 0.0'
p333
(lp334
sS'501 118 1.57079632679'
p335
(lp336
sS'450 460 1.57079632679'
p337
(lp338
sS'57 116 0.0'
p339
(lp340
sS'215 52 0.0'
p341
(lp342
sS'563 330 0.0'
p343
(lp344
sS'472 583 0.0'
p345
(lp346
sS'413 54 0.0'
p347
(lp348
sS'197 96 1.57079632679'
p349
(lp350
sS'407 458 1.57079632679'
p351
(lp352
sS'140 591 1.57079632679'
p353
(lp354
sS'354 358 0.0'
p355
(lp356
sS'677 177 0.0'
p357
(lp358
sS'248 86 0.0'
p359
(lp360
sS'370 82 1.57079632679'
p361
(lp362
sS'681 294 1.57079632679'
p363
(lp364
sS'168 281 0.0'
p365
(lp366
sS'55 542 1.57079632679'
p367
(lp368
sS'362 335 0.0'
p369
(lp370
sS'218 318 1.57079632679'
p371
(lp372
sS'59 457 1.57079632679'
p373
(lp374
sS'392 457 0.0'
p375
(lp376
sS'368 143 1.57079632679'
p377
(lp378
sS'531 443 1.57079632679'
p379
(lp380
sS'649 728 0.0'
p381
(lp382
sS'60 528 1.57079632679'
p383
(lp384
sS'259 675 1.57079632679'
p385
(lp386
sS'398 617 0.0'
p387
(lp388
sS'547 563 1.57079632679'
p389
(lp390
sS'212 312 0.0'
p391
(lp392
sS'206 421 1.57079632679'
p393
(lp394
sS'598 644 1.57079632679'
p395
(lp396
sS'172 99 0.0'
p397
(lp398
sS'188 274 0.0'
p399
(lp400
sS'212 101 1.57079632679'
p401
(lp402
sS'555 689 1.57079632679'
p403
(lp404
sS'392 645 0.0'
p405
(lp406
sS'204 296 0.0'
p407
(lp408
sS'542 568 1.57079632679'
p409
(lp410
sS'683 404 0.0'
p411
(lp412
sS'296 387 0.0'
p413
(lp414
sS'549 356 0.0'
p415
(lp416
sS'168 712 0.0'
p417
(lp418
sS'84 404 0.0'
p419
(lp420
sS'126 678 1.57079632679'
p421
(lp422
sS'128 727 0.0'
p423
(lp424
sS'165 425 1.57079632679'
p425
(lp426
sS'609 623 1.57079632679'
p427
(lp428
sS'535 155 1.57079632679'
p429
(lp430
sS'223 50 0.0'
p431
(lp432
sS'217 434 0.0'
p433
(lp434
sS'202 200 0.0'
p435
(lp436
sS'126 688 0.0'
p437
(lp438
sS'680 65 1.57079632679'
p439
(lp440
sS'385 405 0.0'
p441
(lp442
sS'248 429 0.0'
p443
(lp444
sS'88 295 0.0'
p445
(lp446
sS'287 400 0.0'
p447
(lp448
sS'189 446 0.0'
p449
(lp450
sS'428 357 0.0'
p451
(lp452
sS'364 360 0.0'
p453
(lp454
sS'382 457 0.0'
p455
(lp456
sS'624 616 0.0'
p457
(lp458
sS'94 589 0.0'
p459
(lp460
sS'239 353 0.0'
p461
(lp462
sS'325 283 1.57079632679'
p463
(lp464
sS'208 430 1.57079632679'
p465
(lp466
sS'401 159 1.57079632679'
p467
(lp468
sS'564 396 0.0'
p469
(lp470
sS'572 132 0.0'
p471
(lp472
sS'265 488 1.57079632679'
p473
(lp474
sS'250 513 1.57079632679'
p475
(lp476
sS'427 693 1.57079632679'
p477
(lp478
sS'380 669 1.57079632679'
p479
(lp480
sS'71 709 1.57079632679'
p481
(lp482
sS'264 169 1.57079632679'
p483
(lp484
sS'392 298 0.0'
p485
(lp486
sS'508 459 1.57079632679'
p487
(lp488
sS'249 714 1.57079632679'
p489
(lp490
sS'117 542 1.57079632679'
p491
(lp492
sS'573 316 1.57079632679'
p493
(lp494
sS'219 146 1.57079632679'
p495
(lp496
sS'676 152 0.0'
p497
(lp498
sS'660 532 0.0'
p499
(lp500
sS'386 422 0.0'
p501
(lp502
sS'254 721 0.0'
p503
(lp504
sS'312 274 0.0'
p505
(lp506
sS'508 541 1.57079632679'
p507
(lp508
sS'273 291 0.0'
p509
(lp510
sS'216 123 1.57079632679'
p511
(lp512
sS'546 370 1.57079632679'
p513
(lp514
sS'93 144 1.57079632679'
p515
(lp516
sS'396 171 1.57079632679'
p517
(lp518
sS'58 484 1.57079632679'
p519
(lp520
sS'341 63 1.57079632679'
p521
(lp522
sS'555 711 0.0'
p523
(lp524
sS'251 623 1.57079632679'
p525
(lp526
sS'176 228 1.57079632679'
p527
(lp528
sS'412 441 0.0'
p529
(lp530
sS'643 170 1.57079632679'
p531
(lp532
sS'685 547 0.0'
p533
(lp534
sS'571 720 0.0'
p535
(lp536
sS'459 103 1.57079632679'
p537
(lp538
sS'413 494 1.57079632679'
p539
(lp540
sS'102 661 1.57079632679'
p541
(lp542
sS'466 108 1.57079632679'
p543
(lp544
sS'584 328 1.57079632679'
p545
(lp546
sS'591 585 1.57079632679'
p547
(lp548
sS'443 580 1.57079632679'
p549
(lp550
sS'171 528 0.0'
p551
(lp552
sS'180 523 1.57079632679'
p553
(lp554
sS'606 288 1.57079632679'
p555
(lp556
sS'251 503 1.57079632679'
p557
(lp558
sS'230 244 1.57079632679'
p559
(lp560
sS'536 541 0.0'
p561
(lp562
sS'361 80 0.0'
p563
(lp564
sS'242 440 0.0'
p565
(lp566
sS'493 147 0.0'
p567
(lp568
sS'520 417 1.57079632679'
p569
(lp570
sS'572 707 1.57079632679'
p571
(lp572
sS'154 270 1.57079632679'
p573
(lp574
sS'622 519 0.0'
p575
(lp576
sS'235 122 1.57079632679'
p577
(lp578
sS'191 61 0.0'
p579
(lp580
sS'675 621 0.0'
p581
(lp582
sS'163 203 0.0'
p583
(lp584
sS'678 610 1.57079632679'
p585
(lp586
sS'263 602 1.57079632679'
p587
(lp588
sS'51 681 1.57079632679'
p589
(lp590
sS'578 711 0.0'
p591
(lp592
sS'569 685 0.0'
p593
(lp594
sS'194 76 0.0'
p595
(lp596
sS'75 186 0.0'
p597
(lp598
sS'358 372 0.0'
p599
(lp600
sS'613 112 1.57079632679'
p601
(lp602
sS'123 102 1.57079632679'
p603
(lp604
sS'273 168 0.0'
p605
(lp606
sS'294 292 0.0'
p607
(lp608
sS'462 335 1.57079632679'
p609
(lp610
sS'392 106 1.57079632679'
p611
(lp612
sS'456 350 1.57079632679'
p613
(lp614
sS'140 527 1.57079632679'
p615
(lp616
sS'533 556 1.57079632679'
p617
(lp618
sS'386 676 1.57079632679'
p619
(lp620
sS'665 421 1.57079632679'
p621
(lp622
sS'170 266 0.0'
p623
(lp624
sS'212 226 1.57079632679'
p625
(lp626
sS'380 132 1.57079632679'
p627
(lp628
sS'246 166 0.0'
p629
(lp630
sS'406 369 0.0'
p631
(lp632
sS'646 77 0.0'
p633
(lp634
sS'317 334 1.57079632679'
p635
(lp636
sS'608 654 1.57079632679'
p637
(lp638
sS'593 691 1.57079632679'
p639
(lp640
sS'115 125 0.0'
p641
(lp642
sS'166 433 1.57079632679'
p643
(lp644
sS'119 608 1.57079632679'
p645
(lp646
sS'91 713 1.57079632679'
p647
(lp648
sS'450 83 0.0'
p649
(lp650
sS'406 56 0.0'
p651
(lp652
sS'239 704 1.57079632679'
p653
(lp654
sS'99 690 0.0'
p655
(lp656
sS'597 82 0.0'
p657
(lp658
sS'462 125 0.0'
p659
(lp660
sS'336 386 1.57079632679'
p661
(lp662
sS'89 134 0.0'
p663
(lp664
sS'58 698 0.0'
p665
(lp666
sS'301 332 0.0'
p667
(lp668
sS'648 607 0.0'
p669
(lp670
sS'596 336 1.57079632679'
p671
(lp672
sS'230 682 1.57079632679'
p673
(lp674
sS'559 389 1.57079632679'
p675
(lp676
sS'228 566 0.0'
p677
(lp678
sS'79 88 0.0'
p679
(lp680
sS'62 111 1.57079632679'
p681
(lp682
sS'92 424 0.0'
p683
(lp684
sS'692 165 0.0'
p685
(lp686
sS'446 709 0.0'
p687
(lp688
sS'92 102 1.57079632679'
p689
(lp690
sS'254 601 1.57079632679'
p691
(lp692
sS'607 591 1.57079632679'
p693
(lp694
sS'578 283 1.57079632679'
p695
(lp696
sS'201 140 1.57079632679'
p697
(lp698
sS'566 587 0.0'
p699
(lp700
sS'176 295 0.0'
p701
(lp702
sS'131 101 1.57079632679'
p703
(lp704
sS'165 65 1.57079632679'
p705
(lp706
sS'527 155 0.0'
p707
(lp708
sS'184 74 1.57079632679'
p709
(lp710
sS'69 680 0.0'
p711
(lp712
sS'56 475 1.57079632679'
p713
(lp714
sS'530 377 1.57079632679'
p715
(lp716
sS'551 328 0.0'
p717
(lp718
sS'249 74 0.0'
p719
(lp720
sS'224 592 1.57079632679'
p721
(lp722
sS'135 685 0.0'
p723
(lp724
sS'79 64 0.0'
p725
(lp726
sS'194 265 0.0'
p727
(lp728
sS'388 575 1.57079632679'
p729
(lp730
sS'619 630 0.0'
p731
(lp732
sS'95 46 0.0'
p733
(lp734
sS'208 465 1.57079632679'
p735
(lp736
sS'193 484 1.57079632679'
p737
(lp738
sS'133 587 0.0'
p739
(lp740
sS'110 226 0.0'
p741
(lp742
sS'540 450 0.0'
p743
(lp744
sS'675 560 1.57079632679'
p745
(lp746
sS'472 466 0.0'
p747
(lp748
sS'342 152 1.57079632679'
p749
(lp750
sS'394 309 0.0'
p751
(lp752
sS'407 118 0.0'
p753
(lp754
sS'580 310 0.0'
p755
(lp756
sS'650 511 1.57079632679'
p757
(lp758
sS'180 427 0.0'
p759
(lp760
sS'478 719 1.57079632679'
p761
(lp762
sS'217 395 0.0'
p763
(lp764
sS'116 695 1.57079632679'
p765
(lp766
sS'252 525 1.57079632679'
p767
(lp768
sS'607 680 1.57079632679'
p769
(lp770
sS'459 704 1.57079632679'
p771
(lp772
sS'626 281 0.0'
p773
(lp774
sS'700 538 1.57079632679'
p775
(lp776
sS'220 353 1.57079632679'
p777
(lp778
sS'622 502 0.0'
p779
(lp780
sS'484 699 1.57079632679'
p781
(lp782
sS'203 327 1.57079632679'
p783
(lp784
sS'217 588 1.57079632679'
p785
(lp786
sS'543 393 1.57079632679'
p787
(lp788
sS'199 462 1.57079632679'
p789
(lp790
sS'698 56 1.57079632679'
p791
(lp792
sS'666 624 0.0'
p793
(lp794
sS'354 285 1.57079632679'
p795
(lp796
sS'219 295 0.0'
p797
(lp798
sS'165 486 0.0'
p799
(lp800
sS'341 381 0.0'
p801
(lp802
sS'283 313 1.57079632679'
p803
(lp804
sS'136 260 0.0'
p805
(lp806
sS'200 62 1.57079632679'
p807
(lp808
sS'227 412 1.57079632679'
p809
(lp810
sS'436 581 0.0'
p811
(lp812
sS'221 468 1.57079632679'
p813
(lp814
sS'251 610 1.57079632679'
p815
(lp816
sS'605 689 1.57079632679'
p817
(lp818
sS'574 49 0.0'
p819
(lp820
sS'582 46 0.0'
p821
(lp822
sS'209 194 1.57079632679'
p823
(lp824
sS'207 347 0.0'
p825
(lp826
sS'339 319 0.0'
p827
(lp828
sS'680 370 0.0'
p829
(lp830
sS'128 600 1.57079632679'
p831
(lp832
sS'591 714 0.0'
p833
(lp834
sS'263 505 1.57079632679'
p835
(lp836
sS'192 496 1.57079632679'
p837
(lp838
sS'371 584 1.57079632679'
p839
(lp840
sS'474 95 0.0'
p841
(lp842
sS'471 296 1.57079632679'
p843
(lp844
sS'364 137 1.57079632679'
p845
(lp846
sS'218 85 1.57079632679'
p847
(lp848
sS'264 344 0.0'
p849
(lp850
sS'246 553 0.0'
p851
(lp852
sS'247 487 0.0'
p853
(lp854
sS'224 505 0.0'
p855
(lp856
sS'589 611 0.0'
p857
(lp858
sS'68 168 1.57079632679'
p859
(lp860
sS'77 97 0.0'
p861
(lp862
sS'496 440 1.57079632679'
p863
(lp864
sS'397 602 1.57079632679'
p865
(lp866
sS'423 718 1.57079632679'
p867
(lp868
sS'678 580 1.57079632679'
p869
(lp870
sS'266 284 1.57079632679'
p871
(lp872
sS'220 60 0.0'
p873
(lp874
sS'601 576 0.0'
p875
(lp876
sS'551 474 1.57079632679'
p877
(lp878
sS'421 121 1.57079632679'
p879
(lp880
sS'511 433 1.57079632679'
p881
(lp882
sS'363 124 1.57079632679'
p883
(lp884
sS'454 308 1.57079632679'
p885
(lp886
sS'63 685 0.0'
p887
(lp888
sS'643 630 0.0'
p889
(lp890
sS'113 679 0.0'
p891
(lp892
sS'304 388 1.57079632679'
p893
(lp894
sS'173 85 1.57079632679'
p895
(lp896
sS'485 455 0.0'
p897
(lp898
sS'286 296 0.0'
p899
(lp900
sS'256 68 0.0'
p901
(lp902
sS'541 585 0.0'
p903
(lp904
sS'476 288 1.57079632679'
p905
(lp906
sS'91 416 0.0'
p907
(lp908
sS'661 143 0.0'
p909
(lp910
sS'195 440 0.0'
p911
(lp912
sS'186 209 1.57079632679'
p913
(lp914
sS'207 522 0.0'
p915
(lp916
sS'398 290 1.57079632679'
p917
(lp918
sS'600 637 1.57079632679'
p919
(lp920
sS'218 685 0.0'
p921
(lp922
sS'694 621 1.57079632679'
p923
(lp924
sS'430 118 1.57079632679'
p925
(lp926
sS'528 536 0.0'
p927
(lp928
sS'649 106 0.0'
p929
(lp930
sS'85 571 1.57079632679'
p931
(lp932
sS'378 385 1.57079632679'
p933
(lp934
sS'667 148 1.57079632679'
p935
(lp936
sS'88 160 0.0'
p937
(lp938
sS'142 202 0.0'
p939
(lp940
sS'436 459 1.57079632679'
p941
(lp942
sS'325 166 1.57079632679'
p943
(lp944
sS'130 720 0.0'
p945
(lp946
sS'180 546 1.57079632679'
p947
(lp948
sS'572 334 1.57079632679'
p949
(lp950
sS'421 366 0.0'
p951
(lp952
sS'125 134 0.0'
p953
(lp954
sS'197 535 1.57079632679'
p955
(lp956
sS'361 606 1.57079632679'
p957
(lp958
sS'595 706 1.57079632679'
p959
(lp960
sS'581 97 1.57079632679'
p961
(lp962
sS'211 692 1.57079632679'
p963
(lp964
sS'561 592 0.0'
p965
(lp966
sS'202 116 1.57079632679'
p967
(lp968
sS'558 728 0.0'
p969
(lp970
sS'373 285 0.0'
p971
(lp972
sS'128 567 1.57079632679'
p973
(lp974
sS'480 712 0.0'
p975
(lp976
sS'325 342 0.0'
p977
(lp978
sS'600 651 1.57079632679'
p979
(lp980
sS'678 392 0.0'
p981
(lp982
sS'238 714 1.57079632679'
p983
(lp984
sS'282 341 0.0'
p985
(lp986
sS'421 725 0.0'
p987
(lp988
sS'98 284 1.57079632679'
p989
(lp990
sS'499 169 0.0'
p991
(lp992
sS'698 576 1.57079632679'
p993
(lp994
sS'354 300 0.0'
p995
(lp996
sS'596 606 0.0'
p997
(lp998
sS'264 704 1.57079632679'
p999
(lp1000
sS'571 153 1.57079632679'
p1001
(lp1002
sS'401 331 0.0'
p1003
(lp1004
sS'596 354 1.57079632679'
p1005
(lp1006
sS'51 161 1.57079632679'
p1007
(lp1008
sS'290 141 1.57079632679'
p1009
(lp1010
sS'454 714 1.57079632679'
p1011
(lp1012
sS'345 353 1.57079632679'
p1013
(lp1014
sS'164 546 1.57079632679'
p1015
(lp1016
sS'53 705 1.57079632679'
p1017
(lp1018
sS'238 299 1.57079632679'
p1019
(lp1020
sS'616 298 0.0'
p1021
(lp1022
sS'649 139 0.0'
p1023
(lp1024
sS'253 286 1.57079632679'
p1025
(lp1026
sS'372 75 1.57079632679'
p1027
(lp1028
sS'565 323 0.0'
p1029
(lp1030
sS'391 589 0.0'
p1031
(lp1032
sS'177 256 0.0'
p1033
(lp1034
sS'429 379 1.57079632679'
p1035
(lp1036
sS'162 532 1.57079632679'
p1037
(lp1038
sS'295 364 0.0'
p1039
(lp1040
sS'439 131 0.0'
p1041
(lp1042
sS'189 224 0.0'
p1043
(lp1044
sS'441 64 0.0'
p1045
(lp1046
sS'215 498 0.0'
p1047
(lp1048
sS'532 520 0.0'
p1049
(lp1050
sS'136 108 1.57079632679'
p1051
(lp1052
sS'253 362 1.57079632679'
p1053
(lp1054
sS'588 296 0.0'
p1055
(lp1056
sS'492 449 1.57079632679'
p1057
(lp1058
sS'331 80 0.0'
p1059
(lp1060
sS'640 68 1.57079632679'
p1061
(lp1062
sS'548 533 1.57079632679'
p1063
(lp1064
sS'320 176 0.0'
p1065
(lp1066
sS'606 127 1.57079632679'
p1067
(lp1068
sS'418 457 0.0'
p1069
(lp1070
sS'613 420 0.0'
p1071
(lp1072
sS'208 582 1.57079632679'
p1073
(lp1074
sS'62 164 0.0'
p1075
(lp1076
sS'405 618 1.57079632679'
p1077
(lp1078
sS'210 569 0.0'
p1079
(lp1080
sS'501 464 0.0'
p1081
(lp1082
sS'139 277 1.57079632679'
p1083
(lp1084
sS'247 303 1.57079632679'
p1085
(lp1086
sS'365 305 0.0'
p1087
(lp1088
sS'405 585 0.0'
p1089
(lp1090
sS'671 66 0.0'
p1091
(lp1092
sS'421 350 1.57079632679'
p1093
(lp1094
sS'570 160 1.57079632679'
p1095
(lp1096
sS'504 135 1.57079632679'
p1097
(lp1098
sS'59 299 0.0'
p1099
(lp1100
sS'207 595 1.57079632679'
p1101
(lp1102
sS'171 77 0.0'
p1103
(lp1104
sS'584 416 1.57079632679'
p1105
(lp1106
sS'250 53 0.0'
p1107
(lp1108
sS'255 163 1.57079632679'
p1109
(lp1110
sS'141 93 0.0'
p1111
(lp1112
sS'497 104 1.57079632679'
p1113
(lp1114
sS'335 329 1.57079632679'
p1115
(lp1116
sS'448 52 0.0'
p1117
(lp1118
sS'110 134 1.57079632679'
p1119
(lp1120
sS'679 714 0.0'
p1121
(lp1122
sS'557 603 0.0'
p1123
(lp1124
sS'529 329 1.57079632679'
p1125
(lp1126
sS'480 638 0.0'
p1127
(lp1128
sS'589 49 0.0'
p1129
(lp1130
sS'236 390 0.0'
p1131
(lp1132
sS'594 279 0.0'
p1133
(lp1134
sS'540 167 1.57079632679'
p1135
(lp1136
sS'532 387 1.57079632679'
p1137
(lp1138
sS'421 491 1.57079632679'
p1139
(lp1140
sS'381 565 0.0'
p1141
(lp1142
sS'315 360 1.57079632679'
p1143
(lp1144
sS'62 716 0.0'
p1145
(lp1146
sS'517 450 0.0'
p1147
(lp1148
sS'205 711 1.57079632679'
p1149
(lp1150
sS'210 324 1.57079632679'
p1151
(lp1152
sS'534 465 0.0'
p1153
(lp1154
sS'576 340 1.57079632679'
p1155
(lp1156
sS'158 519 1.57079632679'
p1157
(lp1158
sS'496 702 1.57079632679'
p1159
(lp1160
sS'654 275 0.0'
p1161
(lp1162
sS'462 274 0.0'
p1163
(lp1164
sS'247 404 1.57079632679'
p1165
(lp1166
sS'391 401 1.57079632679'
p1167
(lp1168
sS'206 55 1.57079632679'
p1169
(lp1170
sS'547 451 1.57079632679'
p1171
(lp1172
sS'120 578 1.57079632679'
p1173
(lp1174
sS'577 626 0.0'
p1175
(lp1176
sS'274 314 1.57079632679'
p1177
(lp1178
sS'92 576 0.0'
p1179
(lp1180
sS'73 717 0.0'
p1181
(lp1182
sS'660 160 0.0'
p1183
(lp1184
sS'400 315 0.0'
p1185
(lp1186
sS'362 350 0.0'
p1187
(lp1188
sS'386 146 0.0'
p1189
(lp1190
sS'75 410 0.0'
p1191
(lp1192
sS'465 342 1.57079632679'
p1193
(lp1194
sS'552 366 1.57079632679'
p1195
(lp1196
sS'696 614 1.57079632679'
p1197
(lp1198
sS'572 387 0.0'
p1199
(lp1200
sS'386 338 1.57079632679'
p1201
(lp1202
sS'220 134 0.0'
p1203
(lp1204
sS'194 229 0.0'
p1205
(lp1206
sS'173 302 0.0'
p1207
(lp1208
sS'632 166 1.57079632679'
p1209
(lp1210
sS'225 257 1.57079632679'
p1211
(lp1212
sS'105 293 0.0'
p1213
(lp1214
sS'422 72 1.57079632679'
p1215
(lp1216
sS'565 372 1.57079632679'
p1217
(lp1218
sS'402 358 1.57079632679'
p1219
(lp1220
sS'207 159 0.0'
p1221
(lp1222
sS'659 73 1.57079632679'
p1223
(lp1224
sS'264 628 1.57079632679'
p1225
(lp1226
sS'555 721 1.57079632679'
p1227
(lp1228
sS'597 659 1.57079632679'
p1229
(lp1230
sS'486 561 0.0'
p1231
(lp1232
sS'234 531 0.0'
p1233
(lp1234
sS'302 282 0.0'
p1235
(lp1236
sS'668 167 0.0'
p1237
(lp1238
sS'676 404 1.57079632679'
p1239
(lp1240
sS'457 78 1.57079632679'
p1241
(lp1242
sS'121 285 0.0'
p1243
(lp1244
sS'574 297 1.57079632679'
p1245
(lp1246
sS'116 598 0.0'
p1247
(lp1248
sS'98 654 1.57079632679'
p1249
(lp1250
sS'60 410 0.0'
p1251
(lp1252
sS'427 410 0.0'
p1253
(lp1254
sS'311 289 0.0'
p1255
(lp1256
sS'123 706 0.0'
p1257
(lp1258
sS'263 368 1.57079632679'
p1259
(lp1260
sS'568 53 0.0'
p1261
(lp1262
sS'367 61 0.0'
p1263
(lp1264
sS'471 423 1.57079632679'
p1265
(lp1266
sS'476 103 0.0'
p1267
(lp1268
sS'519 571 0.0'
p1269
(lp1270
sS'376 163 0.0'
p1271
(lp1272
sS'118 141 1.57079632679'
p1273
(lp1274
sS'157 217 0.0'
p1275
(lp1276
sS'593 620 0.0'
p1277
(lp1278
sS'572 101 1.57079632679'
p1279
(lp1280
sS'301 149 0.0'
p1281
(lp1282
sS'617 485 0.0'
p1283
(lp1284
sS'380 56 0.0'
p1285
(lp1286
sS'393 369 0.0'
p1287
(lp1288
sS'139 303 0.0'
p1289
(lp1290
sS'405 85 0.0'
p1291
(lp1292
sS'433 87 0.0'
p1293
(lp1294
sS'315 378 0.0'
p1295
(lp1296
sS'551 569 1.57079632679'
p1297
(lp1298
sS'184 559 0.0'
p1299
(lp1300
sS'619 600 0.0'
p1301
(lp1302
sS'643 491 1.57079632679'
p1303
(lp1304
sS'99 189 1.57079632679'
p1305
(lp1306
sS'375 461 0.0'
p1307
(lp1308
sS'313 328 1.57079632679'
p1309
(lp1310
sS'147 241 1.57079632679'
p1311
(lp1312
sS'633 73 0.0'
p1313
(lp1314
sS'478 690 1.57079632679'
p1315
(lp1316
sS'685 171 0.0'
p1317
(lp1318
sS'177 486 0.0'
p1319
(lp1320
sS'244 528 0.0'
p1321
(lp1322
sS'202 506 0.0'
p1323
(lp1324
sS'466 453 0.0'
p1325
(lp1326
sS'387 289 0.0'
p1327
(lp1328
sS'468 660 0.0'
p1329
(lp1330
sS'494 564 0.0'
p1331
(lp1332
sS'99 440 1.57079632679'
p1333
(lp1334
sS'591 415 1.57079632679'
p1335
(lp1336
sS'207 394 1.57079632679'
p1337
(lp1338
sS'298 178 0.0'
p1339
(lp1340
sS'384 643 0.0'
p1341
(lp1342
sS'224 678 1.57079632679'
p1343
(lp1344
sS'461 116 0.0'
p1345
(lp1346
sS'260 622 1.57079632679'
p1347
(lp1348
sS'686 615 1.57079632679'
p1349
(lp1350
sS'460 87 1.57079632679'
p1351
(lp1352
sS'665 541 1.57079632679'
p1353
(lp1354
sS'106 90 0.0'
p1355
(lp1356
sS'144 450 0.0'
p1357
(lp1358
sS'396 321 0.0'
p1359
(lp1360
sS'343 273 0.0'
p1361
(lp1362
sS'397 281 1.57079632679'
p1363
(lp1364
sS'379 96 1.57079632679'
p1365
(lp1366
sS'565 339 0.0'
p1367
(lp1368
sS'588 431 0.0'
p1369
(lp1370
sS'255 342 1.57079632679'
p1371
(lp1372
sS'176 536 1.57079632679'
p1373
(lp1374
sS'668 410 1.57079632679'
p1375
(lp1376
sS'258 727 0.0'
p1377
(lp1378
sS'323 353 0.0'
p1379
(lp1380
sS'579 411 1.57079632679'
p1381
(lp1382
sS'177 452 1.57079632679'
p1383
(lp1384
sS'649 592 1.57079632679'
p1385
(lp1386
sS'335 375 1.57079632679'
p1387
(lp1388
sS'435 330 0.0'
p1389
(lp1390
sS'557 168 1.57079632679'
p1391
(lp1392
sS'240 86 1.57079632679'
p1393
(lp1394
sS'65 125 1.57079632679'
p1395
(lp1396
sS'686 607 1.57079632679'
p1397
(lp1398
sS'66 78 0.0'
p1399
(lp1400
sS'575 75 0.0'
p1401
(lp1402
sS'208 236 1.57079632679'
p1403
(lp1404
sS'623 112 0.0'
p1405
(lp1406
sS'670 138 1.57079632679'
p1407
(lp1408
sS'693 280 0.0'
p1409
(lp1410
sS'423 107 0.0'
p1411
(lp1412
sS'674 360 0.0'
p1413
(lp1414
sS'640 623 0.0'
p1415
(lp1416
sS'261 519 1.57079632679'
p1417
(lp1418
sS'252 587 1.57079632679'
p1419
(lp1420
sS'234 337 0.0'
p1421
(lp1422
sS'151 528 1.57079632679'
p1423
(lp1424
sS'375 622 1.57079632679'
p1425
(lp1426
sS'252 370 0.0'
p1427
(lp1428
sS'635 496 1.57079632679'
p1429
(lp1430
sS'93 705 0.0'
p1431
(lp1432
sS'390 614 1.57079632679'
p1433
(lp1434
sS'278 281 1.57079632679'
p1435
(lp1436
sS'144 136 1.57079632679'
p1437
(lp1438
sS'638 612 0.0'
p1439
(lp1440
sS'426 423 1.57079632679'
p1441
(lp1442
sS'221 711 1.57079632679'
p1443
(lp1444
sS'105 208 1.57079632679'
p1445
(lp1446
sS'95 115 0.0'
p1447
(lp1448
sS'51 414 1.57079632679'
p1449
(lp1450
sS'85 93 1.57079632679'
p1451
(lp1452
sS'227 338 0.0'
p1453
(lp1454
sS'210 548 0.0'
p1455
(lp1456
sS'423 384 1.57079632679'
p1457
(lp1458
sS'474 415 0.0'
p1459
(lp1460
sS'664 68 0.0'
p1461
(lp1462
sS'391 46 0.0'
p1463
(lp1464
sS'452 71 0.0'
p1465
(lp1466
sS'649 291 1.57079632679'
p1467
(lp1468
sS'221 546 1.57079632679'
p1469
(lp1470
sS'573 394 0.0'
p1471
(lp1472
sS'243 687 0.0'
p1473
(lp1474
sS'121 571 0.0'
p1475
(lp1476
sS'245 146 1.57079632679'
p1477
(lp1478
sS'398 77 1.57079632679'
p1479
(lp1480
sS'501 155 0.0'
p1481
(lp1482
sS'404 47 0.0'
p1483
(lp1484
sS'603 104 0.0'
p1485
(lp1486
sS'99 432 1.57079632679'
p1487
(lp1488
sS'104 590 1.57079632679'
p1489
(lp1490
sS'81 685 0.0'
p1491
(lp1492
sS'213 305 1.57079632679'
p1493
(lp1494
sS'605 422 1.57079632679'
p1495
(lp1496
sS'117 223 1.57079632679'
p1497
(lp1498
sS'248 156 1.57079632679'
p1499
(lp1500
sS'576 92 1.57079632679'
p1501
(lp1502
sS'75 592 0.0'
p1503
(lp1504
sS'124 219 0.0'
p1505
(lp1506
sS'402 92 0.0'
p1507
(lp1508
sS'235 521 1.57079632679'
p1509
(lp1510
sS'264 360 1.57079632679'
p1511
(lp1512
sS'72 727 0.0'
p1513
(lp1514
sS'246 498 1.57079632679'
p1515
(lp1516
sS'221 599 1.57079632679'
p1517
(lp1518
sS'338 360 0.0'
p1519
(lp1520
sS'189 255 1.57079632679'
p1521
(lp1522
sS'256 376 0.0'
p1523
(lp1524
sS'469 349 1.57079632679'
p1525
(lp1526
sS'403 410 1.57079632679'
p1527
(lp1528
sS'183 51 0.0'
p1529
(lp1530
sS'92 169 0.0'
p1531
(lp1532
sS'57 654 1.57079632679'
p1533
(lp1534
sS'129 580 0.0'
p1535
(lp1536
sS'508 408 0.0'
p1537
(lp1538
sS'195 522 1.57079632679'
p1539
(lp1540
sS'630 150 1.57079632679'
p1541
(lp1542
sS'183 289 0.0'
p1543
(lp1544
sS'583 718 1.57079632679'
p1545
(lp1546
sS'122 253 1.57079632679'
p1547
(lp1548
sS'463 355 0.0'
p1549
(lp1550
sS'431 309 1.57079632679'
p1551
(lp1552
sS'663 699 1.57079632679'
p1553
(lp1554
sS'331 313 1.57079632679'
p1555
(lp1556
sS'215 256 1.57079632679'
p1557
(lp1558
sS'532 408 1.57079632679'
p1559
(lp1560
sS'378 174 0.0'
p1561
(lp1562
sS'520 149 1.57079632679'
p1563
(lp1564
sS'68 412 1.57079632679'
p1565
(lp1566
sS'573 615 0.0'
p1567
(lp1568
sS'177 56 0.0'
p1569
(lp1570
sS'209 202 0.0'
p1571
(lp1572
sS'594 380 1.57079632679'
p1573
(lp1574
sS'539 376 1.57079632679'
p1575
(lp1576
sS'387 435 1.57079632679'
p1577
(lp1578
sS'631 623 0.0'
p1579
(lp1580
sS'580 701 0.0'
p1581
(lp1582
sS'84 588 0.0'
p1583
(lp1584
sS'655 630 0.0'
p1585
(lp1586
sS'374 301 0.0'
p1587
(lp1588
sS'176 461 1.57079632679'
p1589
(lp1590
sS'146 587 0.0'
p1591
(lp1592
sS'239 307 1.57079632679'
p1593
(lp1594
sS'569 110 0.0'
p1595
(lp1596
sS'238 479 0.0'
p1597
(lp1598
sS'371 684 0.0'
p1599
(lp1600
sS'639 116 1.57079632679'
p1601
(lp1602
sS'185 94 1.57079632679'
p1603
(lp1604
sS'202 359 1.57079632679'
p1605
(lp1606
sS'443 694 0.0'
p1607
(lp1608
sS'259 154 0.0'
p1609
(lp1610
sS'100 420 1.57079632679'
p1611
(lp1612
sS'633 159 0.0'
p1613
(lp1614
sS'463 444 0.0'
p1615
(lp1616
sS'251 421 0.0'
p1617
(lp1618
sS'192 459 1.57079632679'
p1619
(lp1620
sS'400 177 0.0'
p1621
(lp1622
sS'394 338 0.0'
p1623
(lp1624
sS'558 72 1.57079632679'
p1625
(lp1626
sS'224 284 1.57079632679'
p1627
(lp1628
sS'63 577 0.0'
p1629
(lp1630
sS'432 476 1.57079632679'
p1631
(lp1632
sS'563 67 0.0'
p1633
(lp1634
sS'459 451 1.57079632679'
p1635
(lp1636
sS'466 571 0.0'
p1637
(lp1638
sS'227 319 1.57079632679'
p1639
(lp1640
sS'663 584 0.0'
p1641
(lp1642
sS'386 379 1.57079632679'
p1643
(lp1644
sS'62 566 1.57079632679'
p1645
(lp1646
sS'216 674 0.0'
p1647
(lp1648
sS'388 389 1.57079632679'
p1649
(lp1650
sS'304 325 1.57079632679'
p1651
(lp1652
sS'382 114 0.0'
p1653
(lp1654
sS'509 172 0.0'
p1655
(lp1656
sS'356 395 0.0'
p1657
(lp1658
sS'223 126 0.0'
p1659
(lp1660
sS'231 263 1.57079632679'
p1661
(lp1662
sS'615 520 0.0'
p1663
(lp1664
sS'634 430 0.0'
p1665
(lp1666
sS'82 413 1.57079632679'
p1667
(lp1668
sS'433 337 1.57079632679'
p1669
(lp1670
sS'422 375 1.57079632679'
p1671
(lp1672
sS'543 157 0.0'
p1673
(lp1674
sS'371 574 0.0'
p1675
(lp1676
sS'304 365 1.57079632679'
p1677
(lp1678
sS'99 628 1.57079632679'
p1679
(lp1680
sS'274 387 0.0'
p1681
(lp1682
sS'428 399 1.57079632679'
p1683
(lp1684
sS'203 452 1.57079632679'
p1685
(lp1686
sS'659 173 0.0'
p1687
(lp1688
sS'573 167 1.57079632679'
p1689
(lp1690
sS'538 148 1.57079632679'
p1691
(lp1692
sS'243 67 1.57079632679'
p1693
(lp1694
sS'218 426 0.0'
p1695
(lp1696
sS'687 67 0.0'
p1697
(lp1698
sS'171 563 0.0'
p1699
(lp1700
sS'381 284 0.0'
p1701
(lp1702
sS'414 112 0.0'
p1703
(lp1704
sS'254 667 0.0'
p1705
(lp1706
sS'597 680 0.0'
p1707
(lp1708
sS'60 422 0.0'
p1709
(lp1710
sS'406 642 1.57079632679'
p1711
(lp1712
sS'477 126 1.57079632679'
p1713
(lp1714
sS'500 427 1.57079632679'
p1715
(lp1716
sS'371 341 0.0'
p1717
(lp1718
sS'213 372 0.0'
p1719
(lp1720
sS'558 355 1.57079632679'
p1721
(lp1722
sS'632 285 0.0'
p1723
(lp1724
sS'127 146 0.0'
p1725
(lp1726
sS'182 717 1.57079632679'
p1727
(lp1728
sS'370 388 0.0'
p1729
(lp1730
sS'681 52 0.0'
p1731
(lp1732
sS'153 558 1.57079632679'
p1733
(lp1734
sS'53 439 1.57079632679'
p1735
(lp1736
sS'164 232 0.0'
p1737
(lp1738
sS'211 148 1.57079632679'
p1739
(lp1740
sS'190 52 0.0'
p1741
(lp1742
sS'231 137 1.57079632679'
p1743
(lp1744
sS'277 298 0.0'
p1745
(lp1746
sS'100 571 0.0'
p1747
(lp1748
sS'691 155 0.0'
p1749
(lp1750
sS'113 206 0.0'
p1751
(lp1752
sS'579 64 0.0'
p1753
(lp1754
sS'117 95 0.0'
p1755
(lp1756
sS'595 597 0.0'
p1757
(lp1758
sS'620 609 1.57079632679'
p1759
(lp1760
sS'661 152 1.57079632679'
p1761
(lp1762
sS'153 458 0.0'
p1763
(lp1764
sS'700 400 1.57079632679'
p1765
(lp1766
sS'304 317 0.0'
p1767
(lp1768
sS'538 383 0.0'
p1769
(lp1770
sS'441 509 0.0'
p1771
(lp1772
sS'211 214 1.57079632679'
p1773
(lp1774
sS'207 718 1.57079632679'
p1775
(lp1776
sS'651 115 1.57079632679'
p1777
(lp1778
sS'89 433 1.57079632679'
p1779
(lp1780
sS'323 305 1.57079632679'
p1781
(lp1782
sS'207 481 0.0'
p1783
(lp1784
sS'611 410 0.0'
p1785
(lp1786
sS'561 423 0.0'
p1787
(lp1788
sS'658 408 0.0'
p1789
(lp1790
sS'591 93 0.0'
p1791
(lp1792
sS'203 552 0.0'
p1793
(lp1794
sS'105 111 0.0'
p1795
(lp1796
sS'111 566 0.0'
p1797
(lp1798
sS'651 551 1.57079632679'
p1799
(lp1800
sS'530 727 0.0'
p1801
(lp1802
sS'492 709 1.57079632679'
p1803
(lp1804
sS'428 286 0.0'
p1805
(lp1806
sS'380 588 1.57079632679'
p1807
(lp1808
sS'136 607 1.57079632679'
p1809
(lp1810
sS'253 351 0.0'
p1811
(lp1812
sS'575 598 1.57079632679'
p1813
(lp1814
sS'322 139 0.0'
p1815
(lp1816
sS'270 368 1.57079632679'
p1817
(lp1818
sS'86 661 1.57079632679'
p1819
(lp1820
sS'485 142 1.57079632679'
p1821
(lp1822
sS'215 553 1.57079632679'
p1823
(lp1824
sS'376 333 0.0'
p1825
(lp1826
sS'644 498 0.0'
p1827
(lp1828
sS'458 463 0.0'
p1829
(lp1830
sS'687 581 0.0'
p1831
(lp1832
sS'101 275 1.57079632679'
p1833
(lp1834
sS'179 499 0.0'
p1835
(lp1836
sS'432 437 0.0'
p1837
(lp1838
sS'376 648 0.0'
p1839
(lp1840
sS'361 417 1.57079632679'
p1841
(lp1842
sS'673 273 0.0'
p1843
(lp1844
sS'61 133 1.57079632679'
p1845
(lp1846
sS'444 501 0.0'
p1847
(lp1848
sS'555 458 1.57079632679'
p1849
(lp1850
sS'360 380 0.0'
p1851
(lp1852
sS'236 279 1.57079632679'
p1853
(lp1854
sS'395 93 0.0'
p1855
(lp1856
sS'355 349 1.57079632679'
p1857
(lp1858
sS'256 122 0.0'
p1859
(lp1860
sS'418 712 0.0'
p1861
(lp1862
sS'155 450 0.0'
p1863
(lp1864
sS'134 710 0.0'
p1865
(lp1866
sS'578 591 1.57079632679'
p1867
(lp1868
sS'480 583 0.0'
p1869
(lp1870
sS'473 166 1.57079632679'
p1871
(lp1872
sS'487 409 0.0'
p1873
(lp1874
sS'653 298 0.0'
p1875
(lp1876
sS'433 689 0.0'
p1877
(lp1878
sS'696 361 1.57079632679'
p1879
(lp1880
sS'564 608 1.57079632679'
p1881
(lp1882
sS'587 341 0.0'
p1883
(lp1884
sS'71 579 0.0'
p1885
(lp1886
sS'439 300 1.57079632679'
p1887
(lp1888
sS'260 290 0.0'
p1889
(lp1890
sS'189 88 1.57079632679'
p1891
(lp1892
sS'94 91 1.57079632679'
p1893
(lp1894
sS'617 512 1.57079632679'
p1895
(lp1896
sS'431 302 0.0'
p1897
(lp1898
sS'146 268 1.57079632679'
p1899
(lp1900
sS'647 85 0.0'
p1901
(lp1902
sS'258 699 1.57079632679'
p1903
(lp1904
sS'118 535 1.57079632679'
p1905
(lp1906
sS'84 461 0.0'
p1907
(lp1908
sS'312 150 0.0'
p1909
(lp1910
sS'233 700 0.0'
p1911
(lp1912
sS'360 162 0.0'
p1913
(lp1914
sS'125 208 0.0'
p1915
(lp1916
sS'562 348 1.57079632679'
p1917
(lp1918
sS'243 289 0.0'
p1919
(lp1920
sS'630 138 1.57079632679'
p1921
(lp1922
sS'325 389 1.57079632679'
p1923
(lp1924
sS'416 420 0.0'
p1925
(lp1926
sS'640 400 0.0'
p1927
(lp1928
sS'81 46 0.0'
p1929
(lp1930
sS'402 435 0.0'
p1931
(lp1932
sS'570 378 1.57079632679'
p1933
(lp1934
sS'452 450 0.0'
p1935
(lp1936
sS'510 524 0.0'
p1937
(lp1938
sS'260 434 1.57079632679'
p1939
(lp1940
sS'78 701 0.0'
p1941
(lp1942
sS'660 523 0.0'
p1943
(lp1944
sS'545 380 1.57079632679'
p1945
(lp1946
sS'454 339 0.0'
p1947
(lp1948
sS'458 429 1.57079632679'
p1949
(lp1950
sS'664 284 1.57079632679'
p1951
(lp1952
sS'596 294 1.57079632679'
p1953
(lp1954
sS'242 96 0.0'
p1955
(lp1956
sS'632 83 1.57079632679'
p1957
(lp1958
sS'315 346 0.0'
p1959
(lp1960
sS'673 628 0.0'
p1961
(lp1962
sS'411 701 0.0'
p1963
(lp1964
sS'205 310 0.0'
p1965
(lp1966
sS'318 313 1.57079632679'
p1967
(lp1968
sS'241 492 0.0'
p1969
(lp1970
sS'371 633 1.57079632679'
p1971
(lp1972
sS'233 485 1.57079632679'
p1973
(lp1974
sS'392 328 0.0'
p1975
(lp1976
sS'441 347 0.0'
p1977
(lp1978
sS'494 661 1.57079632679'
p1979
(lp1980
sS'209 184 1.57079632679'
p1981
(lp1982
sS'437 425 1.57079632679'
p1983
(lp1984
sS'622 413 0.0'
p1985
(lp1986
sS'692 73 1.57079632679'
p1987
(lp1988
sS'631 403 0.0'
p1989
(lp1990
sS'337 133 0.0'
p1991
(lp1992
sS'403 594 0.0'
p1993
(lp1994
sS'669 580 1.57079632679'
p1995
(lp1996
sS'235 361 0.0'
p1997
(lp1998
sS'86 702 1.57079632679'
p1999
(lp2000
sS'160 554 0.0'
p2001
(lp2002
sS'99 723 0.0'
p2003
(lp2004
sS'338 170 1.57079632679'
p2005
(lp2006
sS'199 560 1.57079632679'
p2007
(lp2008
sS'201 287 0.0'
p2009
(lp2010
sS'487 570 0.0'
p2011
(lp2012
sS'428 449 0.0'
p2013
(lp2014
sS'119 586 1.57079632679'
p2015
(lp2016
sS'218 700 1.57079632679'
p2017
(lp2018
sS'206 704 1.57079632679'
p2019
(lp2020
sS'661 719 1.57079632679'
p2021
(lp2022
sS'330 347 1.57079632679'
p2023
(lp2024
sS'95 158 1.57079632679'
p2025
(lp2026
sS'352 378 1.57079632679'
p2027
(lp2028
sS'302 341 1.57079632679'
p2029
(lp2030
sS'347 361 0.0'
p2031
(lp2032
sS'608 340 1.57079632679'
p2033
(lp2034
sS'685 163 1.57079632679'
p2035
(lp2036
sS'230 436 0.0'
p2037
(lp2038
sS'545 443 0.0'
p2039
(lp2040
sS'164 222 1.57079632679'
p2041
(lp2042
sS'226 404 1.57079632679'
p2043
(lp2044
sS'144 254 1.57079632679'
p2045
(lp2046
sS'415 294 1.57079632679'
p2047
(lp2048
sS'204 514 0.0'
p2049
(lp2050
sS'266 399 1.57079632679'
p2051
(lp2052
sS'611 50 0.0'
p2053
(lp2054
sS'379 311 0.0'
p2055
(lp2056
sS'381 397 0.0'
p2057
(lp2058
sS'415 387 0.0'
p2059
(lp2060
sS'649 409 1.57079632679'
p2061
(lp2062
sS'112 284 1.57079632679'
p2063
(lp2064
sS'516 544 1.57079632679'
p2065
(lp2066
sS'606 309 1.57079632679'
p2067
(lp2068
sS'139 536 0.0'
p2069
(lp2070
sS'474 649 1.57079632679'
p2071
(lp2072
sS'85 173 0.0'
p2073
(lp2074
sS'253 140 1.57079632679'
p2075
(lp2076
sS'616 577 0.0'
p2077
(lp2078
sS'561 158 1.57079632679'
p2079
(lp2080
sS'66 649 0.0'
p2081
(lp2082
sS'292 160 0.0'
p2083
(lp2084
sS'157 239 1.57079632679'
p2085
(lp2086
sS'301 161 1.57079632679'
p2087
(lp2088
sS'618 400 0.0'
p2089
(lp2090
sS'248 279 0.0'
p2091
(lp2092
sS'183 476 1.57079632679'
p2093
(lp2094
sS'609 707 1.57079632679'
p2095
(lp2096
sS'100 104 0.0'
p2097
(lp2098
sS'219 461 0.0'
p2099
(lp2100
sS'363 291 0.0'
p2101
(lp2102
sS'293 312 0.0'
p2103
(lp2104
sS'288 306 1.57079632679'
p2105
(lp2106
sS'286 173 0.0'
p2107
(lp2108
sS'126 279 1.57079632679'
p2109
(lp2110
sS'150 260 1.57079632679'
p2111
(lp2112
sS'354 145 1.57079632679'
p2113
(lp2114
sS'223 559 1.57079632679'
p2115
(lp2116
sS'324 382 0.0'
p2117
(lp2118
sS'233 84 1.57079632679'
p2119
(lp2120
sS'128 270 1.57079632679'
p2121
(lp2122
sS'370 379 0.0'
p2123
(lp2124
sS'520 465 0.0'
p2125
(lp2126
sS'423 299 1.57079632679'
p2127
(lp2128
sS'614 615 1.57079632679'
p2129
(lp2130
sS'102 216 1.57079632679'
p2131
(lp2132
sS'605 297 0.0'
p2133
(lp2134
sS'576 425 1.57079632679'
p2135
(lp2136
sS'578 324 1.57079632679'
p2137
(lp2138
sS'578 610 1.57079632679'
p2139
(lp2140
sS'374 66 1.57079632679'
p2141
(lp2142
sS'295 340 1.57079632679'
p2143
(lp2144
sS'564 140 1.57079632679'
p2145
(lp2146
sS'380 362 1.57079632679'
p2147
(lp2148
sS'200 278 1.57079632679'
p2149
(lp2150
sS'258 60 1.57079632679'
p2151
(lp2152
sS'696 412 1.57079632679'
p2153
(lp2154
sS'73 566 0.0'
p2155
(lp2156
sS'540 555 1.57079632679'
p2157
(lp2158
sS'563 705 0.0'
p2159
(lp2160
sS'486 426 0.0'
p2161
(lp2162
sS'335 291 0.0'
p2163
(lp2164
sS'677 693 0.0'
p2165
(lp2166
sS'688 371 0.0'
p2167
(lp2168
sS'436 409 0.0'
p2169
(lp2170
sS'626 121 0.0'
p2171
(lp2172
sS'688 360 1.57079632679'
p2173
(lp2174
sS'237 505 0.0'
p2175
(lp2176
sS'361 177 0.0'
p2177
(lp2178
sS'63 587 1.57079632679'
p2179
(lp2180
sS'134 558 0.0'
p2181
(lp2182
sS'115 667 0.0'
p2183
(lp2184
sS'317 389 0.0'
p2185
(lp2186
sS'244 368 0.0'
p2187
(lp2188
sS'479 451 0.0'
p2189
(lp2190
sS'683 535 1.57079632679'
p2191
(lp2192
sS'128 532 1.57079632679'
p2193
(lp2194
sS'383 168 0.0'
p2195
(lp2196
sS'531 458 0.0'
p2197
(lp2198
sS'177 282 0.0'
p2199
(lp2200
sS'254 438 0.0'
p2201
(lp2202
sS'577 56 1.57079632679'
p2203
(lp2204
sS'375 321 0.0'
p2205
(lp2206
sS'668 526 0.0'
p2207
(lp2208
sS'262 582 1.57079632679'
p2209
(lp2210
sS'403 428 0.0'
p2211
(lp2212
sS'463 305 1.57079632679'
p2213
(lp2214
sS'415 371 1.57079632679'
p2215
(lp2216
sS'52 521 1.57079632679'
p2217
(lp2218
sS'526 145 1.57079632679'
p2219
(lp2220
sS'680 591 1.57079632679'
p2221
(lp2222
sS'176 421 1.57079632679'
p2223
(lp2224
sS'133 527 0.0'
p2225
(lp2226
sS'565 627 0.0'
p2227
(lp2228
sS'610 58 0.0'
p2229
(lp2230
sS'650 127 0.0'
p2231
(lp2232
sS'626 156 1.57079632679'
p2233
(lp2234
sS'683 704 1.57079632679'
p2235
(lp2236
sS'301 290 1.57079632679'
p2237
(lp2238
sS'150 214 0.0'
p2239
(lp2240
sS'368 395 1.57079632679'
p2241
(lp2242
sS'103 462 0.0'
p2243
(lp2244
sS'665 365 1.57079632679'
p2245
(lp2246
sS'473 576 1.57079632679'
p2247
(lp2248
sS'224 267 1.57079632679'
p2249
(lp2250
sS'375 453 1.57079632679'
p2251
(lp2252
sS'435 351 1.57079632679'
p2253
(lp2254
sS'53 562 1.57079632679'
p2255
(lp2256
sS'170 257 1.57079632679'
p2257
(lp2258
sS'414 486 1.57079632679'
p2259
(lp2260
sS'98 612 1.57079632679'
p2261
(lp2262
sS'685 630 0.0'
p2263
(lp2264
sS'135 268 1.57079632679'
p2265
(lp2266
sS'184 458 1.57079632679'
p2267
(lp2268
sS'200 49 0.0'
p2269
(lp2270
sS'106 186 1.57079632679'
p2271
(lp2272
sS'82 137 0.0'
p2273
(lp2274
sS'246 676 0.0'
p2275
(lp2276
sS'417 315 1.57079632679'
p2277
(lp2278
sS'484 167 1.57079632679'
p2279
(lp2280
sS'204 573 0.0'
p2281
(lp2282
sS'652 584 0.0'
p2283
(lp2284
sS'133 115 1.57079632679'
p2285
(lp2286
sS'85 580 0.0'
p2287
(lp2288
sS'630 588 1.57079632679'
p2289
(lp2290
sS'69 698 1.57079632679'
p2291
(lp2292
sS'175 493 0.0'
p2293
(lp2294
sS'201 541 0.0'
p2295
(lp2296
sS'484 664 1.57079632679'
p2297
(lp2298
sS'208 269 1.57079632679'
p2299
(lp2300
sS'63 703 1.57079632679'
p2301
(lp2302
sS'175 247 0.0'
p2303
(lp2304
sS'570 622 1.57079632679'
p2305
(lp2306
sS'53 179 1.57079632679'
p2307
(lp2308
sS'365 70 0.0'
p2309
(lp2310
sS'156 712 0.0'
p2311
(lp2312
sS'589 75 0.0'
p2313
(lp2314
sS'377 139 1.57079632679'
p2315
(lp2316
sS'183 269 1.57079632679'
p2317
(lp2318
sS'222 607 1.57079632679'
p2319
(lp2320
sS'452 100 0.0'
p2321
(lp2322
sS'64 102 1.57079632679'
p2323
(lp2324
sS'280 374 0.0'
p2325
(lp2326
sS'133 228 1.57079632679'
p2327
(lp2328
sS'208 136 1.57079632679'
p2329
(lp2330
sS'140 722 0.0'
p2331
(lp2332
sS'629 487 0.0'
p2333
(lp2334
sS'197 69 0.0'
p2335
(lp2336
sS'471 561 0.0'
p2337
(lp2338
sS'630 50 0.0'
p2339
(lp2340
sS'615 283 0.0'
p2341
(lp2342
sS'460 436 0.0'
p2343
(lp2344
sS'230 346 0.0'
p2345
(lp2346
sS'584 423 1.57079632679'
p2347
(lp2348
sS'261 325 1.57079632679'
p2349
(lp2350
sS'106 232 0.0'
p2351
(lp2352
sS'349 140 1.57079632679'
p2353
(lp2354
sS'58 93 0.0'
p2355
(lp2356
sS'262 415 1.57079632679'
p2357
(lp2358
sS'102 645 1.57079632679'
p2359
(lp2360
sS'381 370 0.0'
p2361
(lp2362
sS'672 724 0.0'
p2363
(lp2364
sS'532 436 0.0'
p2365
(lp2366
sS'445 445 0.0'
p2367
(lp2368
sS'257 509 1.57079632679'
p2369
(lp2370
sS'241 126 0.0'
p2371
(lp2372
sS'678 541 0.0'
p2373
(lp2374
sS'183 465 0.0'
p2375
(lp2376
sS'354 313 1.57079632679'
p2377
(lp2378
sS'200 472 1.57079632679'
p2379
(lp2380
sS'92 458 0.0'
p2381
(lp2382
sS'166 418 0.0'
p2383
(lp2384
sS'163 99 0.0'
p2385
(lp2386
sS'196 720 1.57079632679'
p2387
(lp2388
sS'343 370 1.57079632679'
p2389
(lp2390
sS'379 605 1.57079632679'
p2391
(lp2392
sS'332 320 0.0'
p2393
(lp2394
sS'670 295 1.57079632679'
p2395
(lp2396
sS'684 75 0.0'
p2397
(lp2398
sS'672 715 0.0'
p2399
(lp2400
sS'385 449 1.57079632679'
p2401
(lp2402
sS'386 322 1.57079632679'
p2403
(lp2404
sS'61 521 1.57079632679'
p2405
(lp2406
sS'188 541 0.0'
p2407
(lp2408
sS'201 529 1.57079632679'
p2409
(lp2410
sS'352 162 0.0'
p2411
(lp2412
sS'258 280 1.57079632679'
p2413
(lp2414
sS'91 77 0.0'
p2415
(lp2416
sS'404 168 1.57079632679'
p2417
(lp2418
sS'168 555 0.0'
p2419
(lp2420
sS'545 348 0.0'
p2421
(lp2422
sS'344 132 0.0'
p2423
(lp2424
sS'149 690 1.57079632679'
p2425
(lp2426
sS'623 590 1.57079632679'
p2427
(lp2428
sS'363 88 1.57079632679'
p2429
(lp2430
sS'139 289 0.0'
p2431
(lp2432
sS'232 708 1.57079632679'
p2433
(lp2434
sS'75 651 0.0'
p2435
(lp2436
sS'607 726 0.0'
p2437
(lp2438
sS'373 443 0.0'
p2439
(lp2440
sS'412 72 1.57079632679'
p2441
(lp2442
sS'238 322 0.0'
p2443
(lp2444
sS'228 423 1.57079632679'
p2445
(lp2446
sS'648 282 0.0'
p2447
(lp2448
sS'414 581 1.57079632679'
p2449
(lp2450
sS'692 592 1.57079632679'
p2451
(lp2452
sS'405 351 0.0'
p2453
(lp2454
sS'448 132 0.0'
p2455
(lp2456
sS'368 432 1.57079632679'
p2457
(lp2458
sS'405 278 0.0'
p2459
(lp2460
sS'236 615 0.0'
p2461
(lp2462
sS'262 718 1.57079632679'
p2463
(lp2464
sS'114 591 1.57079632679'
p2465
(lp2466
sS'70 106 1.57079632679'
p2467
(lp2468
sS'299 397 0.0'
p2469
(lp2470
sS'200 416 0.0'
p2471
(lp2472
sS'548 165 1.57079632679'
p2473
(lp2474
sS'633 123 0.0'
p2475
(lp2476
sS'310 173 0.0'
p2477
(lp2478
sS'172 571 0.0'
p2479
(lp2480
sS'689 711 0.0'
p2481
(lp2482
sS'397 671 1.57079632679'
p2483
(lp2484
sS'383 106 1.57079632679'
p2485
(lp2486
sS'580 368 1.57079632679'
p2487
(lp2488
sS'410 335 1.57079632679'
p2489
(lp2490
sS'405 139 1.57079632679'
p2491
(lp2492
sS'339 335 0.0'
p2493
(lp2494
sS'144 602 1.57079632679'
p2495
(lp2496
sS'182 241 1.57079632679'
p2497
(lp2498
sS'394 441 1.57079632679'
p2499
(lp2500
sS'447 113 1.57079632679'
p2501
(lp2502
sS'635 274 0.0'
p2503
(lp2504
sS'564 407 1.57079632679'
p2505
(lp2506
sS'231 91 0.0'
p2507
(lp2508
sS'491 679 1.57079632679'
p2509
(lp2510
sS'338 351 0.0'
p2511
(lp2512
sS'564 724 0.0'
p2513
(lp2514
sS'617 76 1.57079632679'
p2515
(lp2516
sS'668 386 1.57079632679'
p2517
(lp2518
sS'414 720 0.0'
p2519
(lp2520
sS'324 400 0.0'
p2521
(lp2522
sS'283 276 0.0'
p2523
(lp2524
sS'532 428 1.57079632679'
p2525
(lp2526
sS'700 69 1.57079632679'
p2527
(lp2528
sS'419 273 0.0'
p2529
(lp2530
sS'160 469 1.57079632679'
p2531
(lp2532
sS'268 162 0.0'
p2533
(lp2534
sS'620 90 1.57079632679'
p2535
(lp2536
sS'193 286 0.0'
p2537
(lp2538
sS'449 426 1.57079632679'
p2539
(lp2540
sS'696 377 1.57079632679'
p2541
(lp2542
sS'638 51 0.0'
p2543
(lp2544
sS'258 712 0.0'
p2545
(lp2546
sS'92 697 0.0'
p2547
(lp2548
sS'516 140 0.0'
p2549
(lp2550
sS'425 127 0.0'
p2551
(lp2552
sS'141 519 0.0'
p2553
(lp2554
sS'609 512 1.57079632679'
p2555
(lp2556
sS'488 418 1.57079632679'
p2557
(lp2558
sS'409 572 0.0'
p2559
(lp2560
sS'311 141 0.0'
p2561
(lp2562
sS'261 405 1.57079632679'
p2563
(lp2564
sS'440 104 0.0'
p2565
(lp2566
sS'59 468 1.57079632679'
p2567
(lp2568
sS'399 685 0.0'
p2569
(lp2570
sS'585 82 1.57079632679'
p2571
(lp2572
sS'403 304 0.0'
p2573
(lp2574
sS'171 521 0.0'
p2575
(lp2576
sS'586 596 1.57079632679'
p2577
(lp2578
sS'432 320 1.57079632679'
p2579
(lp2580
sS'226 447 0.0'
p2581
(lp2582
sS'381 352 1.57079632679'
p2583
(lp2584
sS'76 73 0.0'
p2585
(lp2586
sS'633 412 1.57079632679'
p2587
(lp2588
sS'229 116 1.57079632679'
p2589
(lp2590
sS'230 168 1.57079632679'
p2591
(lp2592
sS'232 354 0.0'
p2593
(lp2594
sS'445 78 0.0'
p2595
(lp2596
sS'399 110 0.0'
p2597
(lp2598
sS'381 87 1.57079632679'
p2599
(lp2600
sS'164 241 1.57079632679'
p2601
(lp2602
sS'148 304 0.0'
p2603
(lp2604
sS'106 728 0.0'
p2605
(lp2606
sS'563 100 0.0'
p2607
(lp2608
sS'495 417 0.0'
p2609
(lp2610
sS'354 60 0.0'
p2611
(lp2612
sS'691 563 1.57079632679'
p2613
(lp2614
sS'215 516 0.0'
p2615
(lp2616
sS'619 493 1.57079632679'
p2617
(lp2618
sS'175 507 1.57079632679'
p2619
(lp2620
sS'598 727 0.0'
p2621
(lp2622
sS'263 615 1.57079632679'
p2623
(lp2624
sS'689 555 0.0'
p2625
(lp2626
sS'611 393 1.57079632679'
p2627
(lp2628
sS'234 272 0.0'
p2629
(lp2630
sS'154 227 0.0'
p2631
(lp2632
sS'207 605 1.57079632679'
p2633
(lp2634
sS'568 575 0.0'
p2635
(lp2636
sS'421 406 1.57079632679'
p2637
(lp2638
sS'199 321 1.57079632679'
p2639
(lp2640
sS'577 106 1.57079632679'
p2641
(lp2642
sS'168 442 0.0'
p2643
(lp2644
sS'545 518 0.0'
p2645
(lp2646
sS'392 115 1.57079632679'
p2647
(lp2648
sS'148 683 1.57079632679'
p2649
(lp2650
sS'281 167 1.57079632679'
p2651
(lp2652
sS'362 313 0.0'
p2653
(lp2654
sS'370 106 1.57079632679'
p2655
(lp2656
sS'254 97 1.57079632679'
p2657
(lp2658
sS'652 163 1.57079632679'
p2659
(lp2660
sS'435 711 1.57079632679'
p2661
(lp2662
sS'550 390 1.57079632679'
p2663
(lp2664
sS'453 62 0.0'
p2665
(lp2666
sS'192 429 1.57079632679'
p2667
(lp2668
sS'156 567 1.57079632679'
p2669
(lp2670
sS'485 150 1.57079632679'
p2671
(lp2672
sS'95 410 0.0'
p2673
(lp2674
sS'485 133 0.0'
p2675
(lp2676
sS'543 467 0.0'
p2677
(lp2678
sS'588 112 1.57079632679'
p2679
(lp2680
sS'557 405 0.0'
p2681
(lp2682
sS'560 115 1.57079632679'
p2683
(lp2684
sS'395 634 1.57079632679'
p2685
(lp2686
sS'362 390 1.57079632679'
p2687
(lp2688
sS'126 516 0.0'
p2689
(lp2690
sS'600 668 0.0'
p2691
(lp2692
sS'608 698 1.57079632679'
p2693
(lp2694
sS'576 575 0.0'
p2695
(lp2696
sS'210 533 0.0'
p2697
(lp2698
sS'385 635 0.0'
p2699
(lp2700
sS'444 274 0.0'
p2701
(lp2702
sS'217 278 1.57079632679'
p2703
(lp2704
sS'398 345 0.0'
p2705
(lp2706
sS'676 599 1.57079632679'
p2707
(lp2708
sS'198 210 0.0'
p2709
(lp2710
sS'598 327 0.0'
p2711
(lp2712
sS'341 159 1.57079632679'
p2713
(lp2714
sS'230 585 0.0'
p2715
(lp2716
sS'683 152 0.0'
p2717
(lp2718
sS'130 704 1.57079632679'
p2719
(lp2720
sS'386 97 1.57079632679'
p2721
(lp2722
sS'132 128 1.57079632679'
p2723
(lp2724
sS'430 344 1.57079632679'
p2725
(lp2726
sS'556 612 1.57079632679'
p2727
(lp2728
sS'441 322 1.57079632679'
p2729
(lp2730
sS'125 590 0.0'
p2731
(lp2732
sS'234 559 0.0'
p2733
(lp2734
sS'690 294 1.57079632679'
p2735
(lp2736
sS'480 672 0.0'
p2737
(lp2738
sS'461 566 0.0'
p2739
(lp2740
sS'90 110 0.0'
p2741
(lp2742
sS'120 684 1.57079632679'
p2743
(lp2744
sS'472 114 0.0'
p2745
(lp2746
sS'76 291 1.57079632679'
p2747
(lp2748
sS'240 586 1.57079632679'
p2749
(lp2750
sS'257 473 1.57079632679'
p2751
(lp2752
sS'222 670 0.0'
p2753
(lp2754
sS'304 169 1.57079632679'
p2755
(lp2756
sS'445 283 1.57079632679'
p2757
(lp2758
sS'465 678 1.57079632679'
p2759
(lp2760
sS'268 120 1.57079632679'
p2761
(lp2762
sS'361 57 1.57079632679'
p2763
(lp2764
sS'151 92 0.0'
p2765
(lp2766
sS'277 396 1.57079632679'
p2767
(lp2768
sS'238 549 0.0'
p2769
(lp2770
sS'578 84 0.0'
p2771
(lp2772
sS'164 410 0.0'
p2773
(lp2774
sS'81 80 0.0'
p2775
(lp2776
sS'112 268 0.0'
p2777
(lp2778
sS'405 67 1.57079632679'
p2779
(lp2780
sS'398 400 1.57079632679'
p2781
(lp2782
sS'549 138 0.0'
p2783
(lp2784
sS'368 612 0.0'
p2785
(lp2786
sS'62 441 0.0'
p2787
(lp2788
sS'678 550 1.57079632679'
p2789
(lp2790
sS'138 702 0.0'
p2791
(lp2792
sS'573 143 1.57079632679'
p2793
(lp2794
sS'216 267 1.57079632679'
p2795
(lp2796
sS'423 59 1.57079632679'
p2797
(lp2798
sS'129 453 0.0'
p2799
(lp2800
sS'114 291 0.0'
p2801
(lp2802
sS'669 49 0.0'
p2803
(lp2804
sS'469 710 1.57079632679'
p2805
(lp2806
sS'256 394 0.0'
p2807
(lp2808
sS'107 669 1.57079632679'
p2809
(lp2810
sS'438 286 0.0'
p2811
(lp2812
sS'204 221 0.0'
p2813
(lp2814
sS'303 357 1.57079632679'
p2815
(lp2816
sS'145 697 1.57079632679'
p2817
(lp2818
sS'617 623 1.57079632679'
p2819
(lp2820
sS'553 504 1.57079632679'
p2821
(lp2822
sS'143 104 1.57079632679'
p2823
(lp2824
sS'361 437 1.57079632679'
p2825
(lp2826
sS'441 340 1.57079632679'
p2827
(lp2828
sS'99 563 0.0'
p2829
(lp2830
sS'366 321 0.0'
p2831
(lp2832
sS'603 53 0.0'
p2833
(lp2834
sS'286 383 1.57079632679'
p2835
(lp2836
sS'76 166 1.57079632679'
p2837
(lp2838
sS'210 292 1.57079632679'
p2839
(lp2840
sS'189 81 0.0'
p2841
(lp2842
sS'443 88 0.0'
p2843
(lp2844
sS'250 118 1.57079632679'
p2845
(lp2846
sS'365 157 0.0'
p2847
(lp2848
sS'612 81 1.57079632679'
p2849
(lp2850
sS'586 62 1.57079632679'
p2851
(lp2852
sS'451 288 0.0'
p2853
(lp2854
sS'548 556 1.57079632679'
p2855
(lp2856
sS'674 73 0.0'
p2857
(lp2858
sS'246 59 1.57079632679'
p2859
(lp2860
sS'444 417 0.0'
p2861
(lp2862
sS'384 610 0.0'
p2863
(lp2864
sS'653 51 0.0'
p2865
(lp2866
sS'339 283 1.57079632679'
p2867
(lp2868
sS'478 571 1.57079632679'
p2869
(lp2870
sS'77 126 1.57079632679'
p2871
(lp2872
sS'421 327 1.57079632679'
p2873
(lp2874
sS'127 553 0.0'
p2875
(lp2876
sS'91 151 1.57079632679'
p2877
(lp2878
sS'244 545 1.57079632679'
p2879
(lp2880
sS'422 343 0.0'
p2881
(lp2882
sS'530 571 0.0'
p2883
(lp2884
sS'594 573 0.0'
p2885
(lp2886
sS'117 214 1.57079632679'
p2887
(lp2888
sS'214 412 0.0'
p2889
(lp2890
sS'584 361 1.57079632679'
p2891
(lp2892
sS'587 316 1.57079632679'
p2893
(lp2894
sS'166 539 1.57079632679'
p2895
(lp2896
sS'692 681 0.0'
p2897
(lp2898
sS'393 57 0.0'
p2899
(lp2900
sS'229 470 0.0'
p2901
(lp2902
sS'211 167 0.0'
p2903
(lp2904
sS'569 348 0.0'
p2905
(lp2906
sS'517 166 0.0'
p2907
(lp2908
sS'231 577 1.57079632679'
p2909
(lp2910
sS'441 722 0.0'
p2911
(lp2912
sS'54 552 1.57079632679'
p2913
(lp2914
sS'325 72 1.57079632679'
p2915
(lp2916
sS'222 330 1.57079632679'
p2917
(lp2918
sS'509 155 0.0'
p2919
(lp2920
sS'419 685 0.0'
p2921
(lp2922
sS'82 673 1.57079632679'
p2923
(lp2924
sS'567 359 1.57079632679'
p2925
(lp2926
sS'223 112 1.57079632679'
p2927
(lp2928
sS'123 698 1.57079632679'
p2929
(lp2930
sS'115 702 0.0'
p2931
(lp2932
sS'591 127 1.57079632679'
p2933
(lp2934
sS'347 299 0.0'
p2935
(lp2936
sS'453 441 1.57079632679'
p2937
(lp2938
sS'569 82 0.0'
p2939
(lp2940
sS'58 505 1.57079632679'
p2941
(lp2942
sS'169 48 0.0'
p2943
(lp2944
sS'269 337 0.0'
p2945
(lp2946
sS'237 426 1.57079632679'
p2947
(lp2948
sS'697 294 1.57079632679'
p2949
(lp2950
sS'109 215 0.0'
p2951
(lp2952
sS'607 602 1.57079632679'
p2953
(lp2954
sS'412 96 1.57079632679'
p2955
(lp2956
sS'80 709 0.0'
p2957
(lp2958
sS'375 639 0.0'
p2959
(lp2960
sS'638 128 0.0'
p2961
(lp2962
sS'258 642 1.57079632679'
p2963
(lp2964
sS'288 361 0.0'
p2965
(lp2966
sS'656 604 0.0'
p2967
(lp2968
sS'606 370 1.57079632679'
p2969
(lp2970
sS'239 537 1.57079632679'
p2971
(lp2972
sS'391 681 0.0'
p2973
(lp2974
sS'473 144 0.0'
p2975
(lp2976
sS'103 124 0.0'
p2977
(lp2978
sS'424 701 1.57079632679'
p2979
(lp2980
sS'627 106 1.57079632679'
p2981
(lp2982
sS'685 681 0.0'
p2983
(lp2984
sS'141 122 1.57079632679'
p2985
(lp2986
sS'142 560 0.0'
p2987
(lp2988
sS'118 720 1.57079632679'
p2989
(lp2990
sS'243 49 0.0'
p2991
(lp2992
sS'470 638 0.0'
p2993
(lp2994
sS'247 576 1.57079632679'
p2995
(lp2996
sS'396 573 0.0'
p2997
(lp2998
sS'576 117 0.0'
p2999
(lp3000
sS'406 657 1.57079632679'
p3001
(lp3002
sS'172 475 1.57079632679'
p3003
(lp3004
sS'257 634 1.57079632679'
p3005
(lp3006
sS'288 287 1.57079632679'
p3007
(lp3008
sS'469 700 0.0'
p3009
(lp3010
sS'95 636 1.57079632679'
p3011
(lp3012
sS'582 130 0.0'
p3013
(lp3014
sS'393 414 0.0'
p3015
(lp3016
sS'589 102 0.0'
p3017
(lp3018
sS'602 623 1.57079632679'
p3019
(lp3020
sS'284 148 0.0'
p3021
(lp3022
sS'217 288 1.57079632679'
p3023
(lp3024
sS'490 718 0.0'
p3025
(lp3026
sS'519 443 1.57079632679'
p3027
(lp3028
sS'96 582 1.57079632679'
p3029
(lp3030
sS'341 77 0.0'
p3031
(lp3032
sS'436 276 0.0'
p3033
(lp3034
sS'608 91 1.57079632679'
p3035
(lp3036
sS'358 275 0.0'
p3037
(lp3038
sS'344 55 1.57079632679'
p3039
(lp3040
sS'57 152 0.0'
p3041
(lp3042
sS'241 610 0.0'
p3043
(lp3044
sS'398 391 0.0'
p3045
(lp3046
sS'629 577 0.0'
p3047
(lp3048
sS'233 371 1.57079632679'
p3049
(lp3050
sS'280 364 1.57079632679'
p3051
(lp3052
sS'270 320 1.57079632679'
p3053
(lp3054
sS'184 437 0.0'
p3055
(lp3056
sS'436 113 0.0'
p3057
(lp3058
sS'577 377 1.57079632679'
p3059
(lp3060
sS'539 460 0.0'
p3061
(lp3062
sS'72 116 0.0'
p3063
(lp3064
sS'369 409 1.57079632679'
p3065
(lp3066
sS'244 602 0.0'
p3067
(lp3068
sS'208 281 0.0'
p3069
(lp3070
sS'633 294 1.57079632679'
p3071
(lp3072
sS'414 322 1.57079632679'
p3073
(lp3074
sS'53 569 1.57079632679'
p3075
(lp3076
sS'641 521 0.0'
p3077
(lp3078
sS'225 95 1.57079632679'
p3079
(lp3080
sS'101 250 1.57079632679'
p3081
(lp3082
sS'215 77 0.0'
p3083
(lp3084
sS'245 109 0.0'
p3085
(lp3086
sS'600 89 1.57079632679'
p3087
(lp3088
sS'158 426 1.57079632679'
p3089
(lp3090
sS'335 177 0.0'
p3091
(lp3092
sS'550 577 0.0'
p3093
(lp3094
sS'258 91 0.0'
p3095
(lp3096
sS'429 49 0.0'
p3097
(lp3098
sS'601 347 1.57079632679'
p3099
(lp3100
sS'116 114 1.57079632679'
p3101
(lp3102
sS'213 243 0.0'
p3103
(lp3104
sS'344 395 0.0'
p3105
(lp3106
sS'390 652 0.0'
p3107
(lp3108
sS'164 215 0.0'
p3109
(lp3110
sS'433 569 1.57079632679'
p3111
(lp3112
sS'257 332 1.57079632679'
p3113
(lp3114
sS'451 469 1.57079632679'
p3115
(lp3116
sS'178 471 0.0'
p3117
(lp3118
sS'524 581 0.0'
p3119
(lp3120
sS'184 571 0.0'
p3121
(lp3122
sS'415 411 0.0'
p3123
(lp3124
sS'678 570 1.57079632679'
p3125
(lp3126
sS'262 177 0.0'
p3127
(lp3128
sS'631 507 1.57079632679'
p3129
(lp3130
sS'128 539 1.57079632679'
p3131
(lp3132
sS'374 419 1.57079632679'
p3133
(lp3134
sS'112 106 0.0'
p3135
(lp3136
sS'389 627 1.57079632679'
p3137
(lp3138
sS'372 595 1.57079632679'
p3139
(lp3140
sS'140 242 1.57079632679'
p3141
(lp3142
sS'655 90 1.57079632679'
p3143
(lp3144
sS'70 69 1.57079632679'
p3145
(lp3146
sS'53 490 1.57079632679'
p3147
(lp3148
sS'541 528 0.0'
p3149
(lp3150
sS'585 394 1.57079632679'
p3151
(lp3152
sS'614 500 0.0'
p3153
(lp3154
sS'145 294 1.57079632679'
p3155
(lp3156
sS'587 348 1.57079632679'
p3157
(lp3158
sS'424 437 1.57079632679'
p3159
(lp3160
sS'399 654 0.0'
p3161
(lp3162
sS'599 584 1.57079632679'
p3163
(lp3164
sS'446 124 1.57079632679'
p3165
(lp3166
sS'267 103 1.57079632679'
p3167
(lp3168
sS'272 356 0.0'
p3169
(lp3170
sS'146 459 0.0'
p3171
(lp3172
sS'542 142 0.0'
p3173
(lp3174
sS'263 535 1.57079632679'
p3175
(lp3176
sS'190 242 1.57079632679'
p3177
(lp3178
sS'209 365 0.0'
p3179
(lp3180
sS'624 70 1.57079632679'
p3181
(lp3182
sS'370 677 1.57079632679'
p3183
(lp3184
sS'290 348 0.0'
p3185
(lp3186
sS'386 67 0.0'
p3187
(lp3188
sS'361 424 1.57079632679'
p3189
(lp3190
sS'676 376 0.0'
p3191
(lp3192
sS'668 557 1.57079632679'
p3193
(lp3194
sS'189 511 0.0'
p3195
(lp3196
sS'269 330 1.57079632679'
p3197
(lp3198
sS'220 245 0.0'
p3199
(lp3200
sS'686 426 0.0'
p3201
(lp3202
sS'374 401 0.0'
p3203
(lp3204
sS'57 58 1.57079632679'
p3205
(lp3206
sS'536 322 0.0'
p3207
(lp3208
sS'602 383 0.0'
p3209
(lp3210
sS'451 502 1.57079632679'
p3211
(lp3212
sS'223 153 1.57079632679'
p3213
(lp3214
sS'201 81 1.57079632679'
p3215
(lp3216
sS'222 480 0.0'
p3217
(lp3218
sS'348 281 0.0'
p3219
(lp3220
sS'499 725 0.0'
p3221
(lp3222
sS'102 165 1.57079632679'
p3223
(lp3224
sS'262 82 1.57079632679'
p3225
(lp3226
sS'403 146 1.57079632679'
p3227
(lp3228
sS'175 202 0.0'
p3229
(lp3230
sS'215 580 1.57079632679'
p3231
(lp3232
sS'424 278 0.0'
p3233
(lp3234
sS'250 448 1.57079632679'
p3235
(lp3236
sS'206 488 0.0'
p3237
(lp3238
sS'654 496 1.57079632679'
p3239
(lp3240
sS'425 86 0.0'
p3241
(lp3242
sS'337 144 1.57079632679'
p3243
(lp3244
sS'700 390 1.57079632679'
p3245
(lp3246
sS'158 305 0.0'
p3247
(lp3248
sS'98 304 0.0'
p3249
(lp3250
sS'550 429 1.57079632679'
p3251
(lp3252
sS'204 252 0.0'
p3253
(lp3254
sS'371 98 1.57079632679'
p3255
(lp3256
sS'435 446 1.57079632679'
p3257
(lp3258
sS'166 251 1.57079632679'
p3259
(lp3260
sS'357 321 1.57079632679'
p3261
(lp3262
sS'692 418 0.0'
p3263
(lp3264
sS'512 568 0.0'
p3265
(lp3266
sS'409 603 1.57079632679'
p3267
(lp3268
sS'154 297 0.0'
p3269
(lp3270
sS'415 357 0.0'
p3271
(lp3272
sS'246 326 0.0'
p3273
(lp3274
sS'272 305 1.57079632679'
p3275
(lp3276
sS'264 138 1.57079632679'
p3277
(lp3278
sS'482 159 1.57079632679'
p3279
(lp3280
sS'408 378 0.0'
p3281
(lp3282
sS'100 619 1.57079632679'
p3283
(lp3284
sS'109 251 1.57079632679'
p3285
(lp3286
sS'332 306 0.0'
p3287
(lp3288
sS'551 589 1.57079632679'
p3289
(lp3290
sS'369 567 0.0'
p3291
(lp3292
sS'238 114 1.57079632679'
p3293
(lp3294
sS'673 586 0.0'
p3295
(lp3296
sS'630 630 0.0'
p3297
(lp3298
sS'638 59 1.57079632679'
p3299
(lp3300
sS'194 711 0.0'
p3301
(lp3302
sS'296 378 0.0'
p3303
(lp3304
sS'640 417 1.57079632679'
p3305
(lp3306
sS'76 422 0.0'
p3307
(lp3308
sS'400 421 1.57079632679'
p3309
(lp3310
sS'489 95 0.0'
p3311
(lp3312
sS'391 158 1.57079632679'
p3313
(lp3314
sS'503 142 1.57079632679'
p3315
(lp3316
sS'166 84 1.57079632679'
p3317
(lp3318
sS'669 695 1.57079632679'
p3319
(lp3320
sS'463 285 1.57079632679'
p3321
(lp3322
sS'514 533 0.0'
p3323
(lp3324
sS'131 217 1.57079632679'
p3325
(lp3326
sS'440 120 1.57079632679'
p3327
(lp3328
sS'177 411 1.57079632679'
p3329
(lp3330
sS'256 541 1.57079632679'
p3331
(lp3332
sS'87 721 1.57079632679'
p3333
(lp3334
sS'605 719 1.57079632679'
p3335
(lp3336
sS'474 327 1.57079632679'
p3337
(lp3338
sS'250 133 1.57079632679'
p3339
(lp3340
sS'499 127 1.57079632679'
p3341
(lp3342
sS'556 628 0.0'
p3343
(lp3344
sS'240 574 0.0'
p3345
(lp3346
sS'211 457 0.0'
p3347
(lp3348
sS'236 147 0.0'
p3349
(lp3350
sS'384 298 0.0'
p3351
(lp3352
sS'339 297 1.57079632679'
p3353
(lp3354
sS'316 371 1.57079632679'
p3355
(lp3356
sS'611 293 0.0'
p3357
(lp3358
sS'87 649 0.0'
p3359
(lp3360
sS'287 133 0.0'
p3361
(lp3362
sS'681 384 0.0'
p3363
(lp3364
sS'186 533 0.0'
p3365
(lp3366
sS'330 275 0.0'
p3367
(lp3368
sS'664 708 1.57079632679'
p3369
(lp3370
sS'98 259 1.57079632679'
p3371
(lp3372
sS'213 477 1.57079632679'
p3373
(lp3374
sS'97 82 0.0'
p3375
(lp3376
sS'223 313 0.0'
p3377
(lp3378
sS'667 397 0.0'
p3379
(lp3380
sS'683 135 0.0'
p3381
(lp3382
sS'482 438 0.0'
p3383
(lp3384
sS'565 598 1.57079632679'
p3385
(lp3386
sS'352 72 1.57079632679'
p3387
(lp3388
sS'430 73 1.57079632679'
p3389
(lp3390
sS'439 485 0.0'
p3391
(lp3392
sS'522 430 0.0'
p3393
(lp3394
sS'471 431 0.0'
p3395
(lp3396
sS'231 604 1.57079632679'
p3397
(lp3398
sS'163 75 1.57079632679'
p3399
(lp3400
sS'432 102 1.57079632679'
p3401
(lp3402
sS'210 383 1.57079632679'
p3403
(lp3404
sS'230 309 0.0'
p3405
(lp3406
sS'120 552 1.57079632679'
p3407
(lp3408
sS'441 561 0.0'
p3409
(lp3410
sS'495 575 0.0'
p3411
(lp3412
sS'369 604 1.57079632679'
p3413
(lp3414
sS'383 657 0.0'
p3415
(lp3416
sS'322 322 0.0'
p3417
(lp3418
sS'536 549 0.0'
p3419
(lp3420
sS'523 542 0.0'
p3421
(lp3422
sS'223 377 1.57079632679'
p3423
(lp3424
sS'125 110 0.0'
p3425
(lp3426
sS'168 290 0.0'
p3427
(lp3428
sS'141 216 1.57079632679'
p3429
(lp3430
sS'234 61 0.0'
p3431
(lp3432
sS'265 440 1.57079632679'
p3433
(lp3434
sS'265 381 0.0'
p3435
(lp3436
sS'565 384 0.0'
p3437
(lp3438
sS'201 426 0.0'
p3439
(lp3440
sS'293 371 0.0'
p3441
(lp3442
sS'406 291 1.57079632679'
p3443
(lp3444
sS'402 449 0.0'
p3445
(lp3446
sS'393 350 1.57079632679'
p3447
(lp3448
sS'499 452 0.0'
p3449
(lp3450
sS'224 455 1.57079632679'
p3451
(lp3452
sS'230 550 1.57079632679'
p3453
(lp3454
sS'108 83 1.57079632679'
p3455
(lp3456
sS'477 704 1.57079632679'
p3457
(lp3458
sS'505 570 1.57079632679'
p3459
(lp3460
sS'513 149 1.57079632679'
p3461
(lp3462
sS'147 550 0.0'
p3463
(lp3464
sS'690 387 1.57079632679'
p3465
(lp3466
sS'366 458 1.57079632679'
p3467
(lp3468
sS'255 147 1.57079632679'
p3469
(lp3470
sS'490 113 0.0'
p3471
(lp3472
sS'342 309 1.57079632679'
p3473
(lp3474
sS'123 668 0.0'
p3475
(lp3476
sS'240 344 0.0'
p3477
(lp3478
sS'663 602 1.57079632679'
p3479
(lp3480
sS'225 69 0.0'
p3481
(lp3482
sS'254 552 1.57079632679'
p3483
(lp3484
sS'362 445 1.57079632679'
p3485
(lp3486
sS'129 237 0.0'
p3487
(lp3488
sS'292 331 0.0'
p3489
(lp3490
sS'122 238 0.0'
p3491
(lp3492
sS'75 133 1.57079632679'
p3493
(lp3494
sS'363 672 1.57079632679'
p3495
(lp3496
sS'405 721 1.57079632679'
p3497
(lp3498
sS'401 567 0.0'
p3499
(lp3500
sS'668 564 0.0'
p3501
(lp3502
sS'450 579 0.0'
p3503
(lp3504
sS'481 117 0.0'
p3505
(lp3506
sS'558 146 1.57079632679'
p3507
(lp3508
sS'546 401 0.0'
p3509
(lp3510
sS'387 126 0.0'
p3511
(lp3512
sS'223 718 0.0'
p3513
(lp3514
sS'434 723 0.0'
p3515
(lp3516
sS'599 59 1.57079632679'
p3517
(lp3518
sS'441 572 0.0'
p3519
(lp3520
sS'314 319 0.0'
p3521
(lp3522
sS'464 691 0.0'
p3523
(lp3524
sS'120 451 0.0'
p3525
(lp3526
sS'148 727 0.0'
p3527
(lp3528
sS'529 365 1.57079632679'
p3529
(lp3530
sS'402 607 0.0'
p3531
(lp3532
sS'389 358 0.0'
p3533
(lp3534
sS'52 133 1.57079632679'
p3535
(lp3536
sS'504 164 1.57079632679'
p3537
(lp3538
sS'668 77 0.0'
p3539
(lp3540
sS'464 135 1.57079632679'
p3541
(lp3542
sS'593 287 0.0'
p3543
(lp3544
sS'87 448 1.57079632679'
p3545
(lp3546
sS'237 164 1.57079632679'
p3547
(lp3548
sS'472 686 0.0'
p3549
(lp3550
sS'58 430 1.57079632679'
p3551
(lp3552
sS'408 105 1.57079632679'
p3553
(lp3554
sS'101 133 0.0'
p3555
(lp3556
sS'556 65 1.57079632679'
p3557
(lp3558
sS'77 453 1.57079632679'
p3559
(lp3560
sS'69 283 0.0'
p3561
(lp3562
sS'163 566 0.0'
p3563
(lp3564
sS'222 536 0.0'
p3565
(lp3566
sS'447 328 0.0'
p3567
(lp3568
sS'247 700 1.57079632679'
p3569
(lp3570
sS'221 238 0.0'
p3571
(lp3572
sS'437 77 0.0'
p3573
(lp3574
sS'59 667 0.0'
p3575
(lp3576
sS'214 342 0.0'
p3577
(lp3578
sS'380 122 0.0'
p3579
(lp3580
sS'98 55 1.57079632679'
p3581
(lp3582
sS'676 421 0.0'
p3583
(lp3584
sS'472 155 1.57079632679'
p3585
(lp3586
sS'220 214 1.57079632679'
p3587
(lp3588
sS'606 328 1.57079632679'
p3589
(lp3590
sS'685 691 1.57079632679'
p3591
(lp3592
sS'475 302 1.57079632679'
p3593
(lp3594
sS'221 569 1.57079632679'
p3595
(lp3596
sS'222 172 0.0'
p3597
(lp3598
sS'274 158 0.0'
p3599
(lp3600
sS'348 317 0.0'
p3601
(lp3602
sS'638 79 1.57079632679'
p3603
(lp3604
sS'625 96 1.57079632679'
p3605
(lp3606
sS'542 417 0.0'
p3607
(lp3608
sS'381 411 0.0'
p3609
(lp3610
sS'111 714 0.0'
p3611
(lp3612
sS'692 718 1.57079632679'
p3613
(lp3614
sS'364 620 1.57079632679'
p3615
(lp3616
sS'521 519 0.0'
p3617
(lp3618
sS'663 616 1.57079632679'
p3619
(lp3620
sS'670 533 0.0'
p3621
(lp3622
sS'682 354 0.0'
p3623
(lp3624
sS'243 564 0.0'
p3625
(lp3626
sS'232 290 0.0'
p3627
(lp3628
sS'167 91 0.0'
p3629
(lp3630
sS'157 248 0.0'
p3631
(lp3632
sS'488 123 1.57079632679'
p3633
(lp3634
sS'460 56 1.57079632679'
p3635
(lp3636
sS'444 311 0.0'
p3637
(lp3638
sS'77 299 0.0'
p3639
(lp3640
sS'175 69 0.0'
p3641
(lp3642
sS'227 542 0.0'
p3643
(lp3644
sS'329 135 0.0'
p3645
(lp3646
sS'653 448 1.57079632679'
p3647
(lp3648
sS'227 513 0.0'
p3649
(lp3650
sS'547 151 1.57079632679'
p3651
(lp3652
sS'364 115 1.57079632679'
p3653
(lp3654
sS'645 57 1.57079632679'
p3655
(lp3656
sS'132 674 1.57079632679'
p3657
(lp3658
sS'408 389 0.0'
p3659
(lp3660
sS'156 540 0.0'
p3661
(lp3662
sS'690 533 1.57079632679'
p3663
(lp3664
sS'127 95 0.0'
p3665
(lp3666
sS'458 314 0.0'
p3667
(lp3668
sS'298 132 0.0'
p3669
(lp3670
sS'295 356 1.57079632679'
p3671
(lp3672
sS'199 243 0.0'
p3673
(lp3674
sS'149 100 0.0'
p3675
(lp3676
sS'539 426 1.57079632679'
p3677
(lp3678
sS'131 460 0.0'
p3679
(lp3680
sS'145 710 1.57079632679'
p3681
(lp3682
sS'107 100 1.57079632679'
p3683
(lp3684
sS'211 62 1.57079632679'
p3685
(lp3686
sS'615 68 1.57079632679'
p3687
(lp3688
sS'125 123 1.57079632679'
p3689
(lp3690
sS'587 706 1.57079632679'
p3691
(lp3692
sS'52 510 1.57079632679'
p3693
(lp3694
sS'591 699 1.57079632679'
p3695
(lp3696
sS'653 422 1.57079632679'
p3697
(lp3698
sS'392 448 0.0'
p3699
(lp3700
sS'252 312 1.57079632679'
p3701
(lp3702
sS'331 366 1.57079632679'
p3703
(lp3704
sS'465 150 1.57079632679'
p3705
(lp3706
sS'604 81 0.0'
p3707
(lp3708
sS'570 124 1.57079632679'
p3709
(lp3710
sS'244 416 0.0'
p3711
(lp3712
sS'362 570 1.57079632679'
p3713
(lp3714
sS'78 574 1.57079632679'
p3715
(lp3716
sS'345 171 1.57079632679'
p3717
(lp3718
sS'165 462 1.57079632679'
p3719
(lp3720
sS'326 330 1.57079632679'
p3721
(lp3722
sS'351 332 1.57079632679'
p3723
(lp3724
sS'317 281 0.0'
p3725
(lp3726
sS'395 383 0.0'
p3727
(lp3728
sS'428 460 0.0'
p3729
(lp3730
sS'162 718 0.0'
p3731
(lp3732
sS'449 346 0.0'
p3733
(lp3734
sS'333 396 1.57079632679'
p3735
(lp3736
sS'246 337 1.57079632679'
p3737
(lp3738
sS'124 260 1.57079632679'
p3739
(lp3740
sS'384 595 0.0'
p3741
(lp3742
sS'185 407 0.0'
p3743
(lp3744
sS'560 618 1.57079632679'
p3745
(lp3746
sS'598 393 0.0'
p3747
(lp3748
sS'666 61 0.0'
p3749
(lp3750
sS'277 142 1.57079632679'
p3751
(lp3752
sS'252 688 1.57079632679'
p3753
(lp3754
sS'171 547 0.0'
p3755
(lp3756
sS'269 146 1.57079632679'
p3757
(lp3758
sS'102 709 1.57079632679'
p3759
(lp3760
sS'579 401 1.57079632679'
p3761
(lp3762
sS'680 143 1.57079632679'
p3763
(lp3764
sS'523 560 1.57079632679'
p3765
(lp3766
sS'167 724 0.0'
p3767
(lp3768
sS'695 690 1.57079632679'
p3769
(lp3770
sS'214 360 1.57079632679'
p3771
(lp3772
sS'235 69 0.0'
p3773
(lp3774
sS'184 505 1.57079632679'
p3775
(lp3776
sS'377 345 1.57079632679'
p3777
(lp3778
sS'607 638 1.57079632679'
p3779
(lp3780
sS'53 67 1.57079632679'
p3781
(lp3782
sS'108 607 0.0'
p3783
(lp3784
sS'439 433 1.57079632679'
p3785
(lp3786
sS'140 544 0.0'
p3787
(lp3788
sS'181 515 0.0'
p3789
(lp3790
sS'660 136 0.0'
p3791
(lp3792
sS'480 653 1.57079632679'
p3793
(lp3794
sS'61 676 1.57079632679'
p3795
(lp3796
sS'623 297 0.0'
p3797
(lp3798
sS'170 454 0.0'
p3799
(lp3800
sS'131 696 0.0'
p3801
(lp3802
sS'537 353 0.0'
p3803
(lp3804
sS'280 154 1.57079632679'
p3805
(lp3806
sS'649 429 0.0'
p3807
(lp3808
sS'603 409 0.0'
p3809
(lp3810
sS'410 648 1.57079632679'
p3811
(lp3812
sS'446 438 0.0'
p3813
(lp3814
sS'685 281 1.57079632679'
p3815
(lp3816
sS'462 656 1.57079632679'
p3817
(lp3818
sS'390 133 1.57079632679'
p3819
(lp3820
sS'537 330 0.0'
p3821
(lp3822
sS'239 314 1.57079632679'
p3823
(lp3824
sS'550 320 0.0'
p3825
(lp3826
sS'57 142 0.0'
p3827
(lp3828
sS'224 369 0.0'
p3829
(lp3830
sS'135 139 1.57079632679'
p3831
(lp3832
sS'409 680 1.57079632679'
p3833
(lp3834
sS'234 413 0.0'
p3835
(lp3836
sS'554 160 1.57079632679'
p3837
(lp3838
sS'138 233 1.57079632679'
p3839
(lp3840
sS'576 351 0.0'
p3841
(lp3842
sS'374 354 0.0'
p3843
(lp3844
sS'446 294 1.57079632679'
p3845
(lp3846
sS'128 607 1.57079632679'
p3847
(lp3848
sS'264 666 1.57079632679'
p3849
(lp3850
sS'267 70 1.57079632679'
p3851
(lp3852
sS'606 614 1.57079632679'
p3853
(lp3854
sS'220 221 1.57079632679'
p3855
(lp3856
sS'99 230 1.57079632679'
p3857
(lp3858
sS'105 447 1.57079632679'
p3859
(lp3860
sS'169 500 1.57079632679'
p3861
(lp3862
sS'199 498 0.0'
p3863
(lp3864
sS'131 615 0.0'
p3865
(lp3866
sS'677 159 1.57079632679'
p3867
(lp3868
sS'471 440 0.0'
p3869
(lp3870
sS'635 423 0.0'
p3871
(lp3872
sS'201 343 1.57079632679'
p3873
(lp3874
sS'73 674 1.57079632679'
p3875
(lp3876
sS'265 542 1.57079632679'
p3877
(lp3878
sS'124 716 0.0'
p3879
(lp3880
sS'455 721 0.0'
p3881
(lp3882
sS'226 700 0.0'
p3883
(lp3884
sS'427 576 0.0'
p3885
(lp3886
sS'274 135 0.0'
p3887
(lp3888
sS'223 523 0.0'
p3889
(lp3890
sS'389 666 1.57079632679'
p3891
(lp3892
sS'69 448 1.57079632679'
p3893
(lp3894
sS'674 681 0.0'
p3895
(lp3896
sS'440 357 0.0'
p3897
(lp3898
sS'135 597 1.57079632679'
p3899
(lp3900
sS'163 272 0.0'
p3901
(lp3902
sS'208 439 0.0'
p3903
(lp3904
sS'349 48 0.0'
p3905
(lp3906
sS'608 579 1.57079632679'
p3907
(lp3908
sS'585 603 1.57079632679'
p3909
(lp3910
sS'683 575 1.57079632679'
p3911
(lp3912
sS'156 255 0.0'
p3913
(lp3914
sS'640 284 0.0'
p3915
(lp3916
sS'540 361 1.57079632679'
p3917
(lp3918
sS'232 157 1.57079632679'
p3919
(lp3920
sS'441 97 0.0'
p3921
(lp3922
sS'549 339 1.57079632679'
p3923
(lp3924
sS'51 122 1.57079632679'
p3925
(lp3926
sS'408 415 1.57079632679'
p3927
(lp3928
sS'641 408 0.0'
p3929
(lp3930
sS'63 291 0.0'
p3931
(lp3932
sS'565 167 0.0'
p3933
(lp3934
sS'601 118 0.0'
p3935
(lp3936
sS'80 432 1.57079632679'
p3937
(lp3938
sS'399 132 1.57079632679'
p3939
(lp3940
sS'103 146 1.57079632679'
p3941
(lp3942
sS'386 308 1.57079632679'
p3943
(lp3944
sS'567 91 1.57079632679'
p3945
(lp3946
sS'59 78 0.0'
p3947
(lp3948
sS'236 690 0.0'
p3949
(lp3950
sS'208 86 0.0'
p3951
(lp3952
sS'213 487 0.0'
p3953
(lp3954
sS'96 678 0.0'
p3955
(lp3956
sS'476 137 0.0'
p3957
(lp3958
sS'74 140 0.0'
p3959
(lp3960
sS'147 111 1.57079632679'
p3961
(lp3962
sS'225 390 0.0'
p3963
(lp3964
sS'557 701 1.57079632679'
p3965
(lp3966
sS'251 681 1.57079632679'
p3967
(lp3968
sS'421 46 0.0'
p3969
(lp3970
sS'436 492 0.0'
p3971
(lp3972
sS'391 597 0.0'
p3973
(lp3974
sS'85 440 1.57079632679'
p3975
(lp3976
sS'94 665 1.57079632679'
p3977
(lp3978
sS'379 147 0.0'
p3979
(lp3980
sS'334 60 1.57079632679'
p3981
(lp3982
sS'80 145 1.57079632679'
p3983
(lp3984
sS'65 86 1.57079632679'
p3985
(lp3986
sS'697 147 1.57079632679'
p3987
(lp3988
sS'166 508 0.0'
p3989
(lp3990
sS'537 341 1.57079632679'
p3991
(lp3992
sS'656 594 1.57079632679'
p3993
(lp3994
sS'236 469 1.57079632679'
p3995
(lp3996
sS'657 289 1.57079632679'
p3997
(lp3998
sS'425 479 0.0'
p3999
(lp4000
sS'544 327 1.57079632679'
p4001
(lp4002
sS'404 324 1.57079632679'
p4003
(lp4004
sS'506 728 0.0'
p4005
(lp4006
sS'323 366 1.57079632679'
p4007
(lp4008
sS'344 70 0.0'
p4009
(lp4010
sS'414 431 0.0'
p4011
(lp4012
sS'366 371 1.57079632679'
p4013
(lp4014
sS'78 581 1.57079632679'
p4015
(lp4016
sS'499 111 1.57079632679'
p4017
(lp4018
sS'313 307 1.57079632679'
p4019
(lp4020
sS'93 444 1.57079632679'
p4021
(lp4022
sS'215 177 1.57079632679'
p4023
(lp4024
sS'417 468 1.57079632679'
p4025
(lp4026
sS'611 360 1.57079632679'
p4027
(lp4028
sS'328 56 1.57079632679'
p4029
(lp4030
sS'64 494 1.57079632679'
p4031
(lp4032
sS'532 528 0.0'
p4033
(lp4034
sS'137 570 0.0'
p4035
(lp4036
sS'215 113 1.57079632679'
p4037
(lp4038
sS'555 379 1.57079632679'
p4039
(lp4040
sS'414 694 1.57079632679'
p4041
(lp4042
sS'459 413 0.0'
p4043
(lp4044
sS'103 199 1.57079632679'
p4045
(lp4046
sS'643 509 1.57079632679'
p4047
(lp4048
sS'613 126 1.57079632679'
p4049
(lp4050
sS'558 579 0.0'
p4051
(lp4052
sS'528 341 1.57079632679'
p4053
(lp4054
sS'336 47 0.0'
p4055
(lp4056
sS'71 147 0.0'
p4057
(lp4058
sS'409 125 1.57079632679'
p4059
(lp4060
sS'398 151 0.0'
p4061
(lp4062
sS'570 366 0.0'
p4063
(lp4064
sS'698 586 1.57079632679'
p4065
(lp4066
sS'429 93 1.57079632679'
p4067
(lp4068
sS'235 723 0.0'
p4069
(lp4070
sS'200 408 0.0'
p4071
(lp4072
sS'572 581 1.57079632679'
p4073
(lp4074
sS'250 633 1.57079632679'
p4075
(lp4076
sS'542 410 1.57079632679'
p4077
(lp4078
sS'532 578 0.0'
p4079
(lp4080
sS'511 582 0.0'
p4081
(lp4082
sS'361 664 1.57079632679'
p4083
(lp4084
sS'367 171 1.57079632679'
p4085
(lp4086
sS'692 60 1.57079632679'
p4087
(lp4088
sS'106 683 0.0'
p4089
(lp4090
sS'328 151 0.0'
p4091
(lp4092
sS'691 287 1.57079632679'
p4093
(lp4094
sS'474 679 0.0'
p4095
(lp4096
sS'222 580 1.57079632679'
p4097
(lp4098
sS'314 299 0.0'
p4099
(lp4100
sS'390 166 1.57079632679'
p4101
(lp4102
sS'263 575 1.57079632679'
p4103
(lp4104
sS'477 662 0.0'
p4105
(lp4106
sS'504 561 1.57079632679'
p4107
(lp4108
sS'225 498 1.57079632679'
p4109
(lp4110
sS'320 288 1.57079632679'
p4111
(lp4112
sS'201 128 1.57079632679'
p4113
(lp4114
sS'251 462 0.0'
p4115
(lp4116
sS'650 146 0.0'
p4117
(lp4118
sS'578 725 0.0'
p4119
(lp4120
sS'78 444 0.0'
p4121
(lp4122
sS'426 501 0.0'
p4123
(lp4124
sS'68 429 1.57079632679'
p4125
(lp4126
sS'64 150 0.0'
p4127
(lp4128
sS'221 487 1.57079632679'
p4129
(lp4130
sS'584 619 1.57079632679'
p4131
(lp4132
sS'611 314 1.57079632679'
p4133
(lp4134
sS'288 319 1.57079632679'
p4135
(lp4136
sS'255 456 1.57079632679'
p4137
(lp4138
sS'455 573 0.0'
p4139
(lp4140
sS'547 436 1.57079632679'
p4141
(lp4142
sS'206 245 1.57079632679'
p4143
(lp4144
sS'436 418 0.0'
p4145
(lp4146
sS'312 160 1.57079632679'
p4147
(lp4148
sS'395 582 0.0'
p4149
(lp4150
sS'53 448 1.57079632679'
p4151
(lp4152
sS'276 346 1.57079632679'
p4153
(lp4154
sS'235 50 0.0'
p4155
(lp4156
sS'450 355 0.0'
p4157
(lp4158
sS'76 661 1.57079632679'
p4159
(lp4160
sS'461 293 0.0'
p4161
(lp4162
s.