(dp0
S'260 109 1.57079632679'
p1
(lp2
sS'630 356 0.0'
p3
(lp4
sS'425 646 0.0'
p5
(lp6
sS'247 166 1.57079632679'
p7
(lp8
sS'469 653 0.0'
p9
(lp10
sS'554 423 0.0'
p11
(lp12
sS'489 136 0.0'
p13
(lp14
sS'103 491 1.57079632679'
p15
(lp16
sS'203 325 0.0'
p17
(lp18
sS'562 713 1.57079632679'
p19
(lp20
sS'388 317 1.57079632679'
p21
(lp22
sS'394 101 1.57079632679'
p23
(lp24
sS'376 500 0.0'
p25
(lp26
sS'111 517 0.0'
p27
(lp28
sS'627 286 0.0'
p29
(lp30
sS'565 154 0.0'
p31
(lp32
sS'648 681 0.0'
p33
(lp34
sS'548 261 1.57079632679'
p35
(lp36
sS'689 598 0.0'
p37
(lp38
sS'358 440 1.57079632679'
p39
(lp40
sS'193 492 1.57079632679'
p41
(lp42
sS'553 637 0.0'
p43
(lp44
sS'222 61 0.0'
p45
(lp46
sS'416 348 1.57079632679'
p47
(lp48
sS'162 489 1.57079632679'
p49
(lp50
sS'482 606 1.57079632679'
p51
(lp52
sS'194 222 0.0'
p53
(lp54
sS'255 678 0.0'
p55
(lp56
sS'201 594 1.57079632679'
p57
(lp58
sS'243 698 1.57079632679'
p59
(lp60
sS'408 672 0.0'
p61
(lp62
sS'675 365 1.57079632679'
p63
(lp64
sS'51 679 1.57079632679'
p65
(lp66
sS'74 82 0.0'
p67
(lp68
sS'76 714 1.57079632679'
p69
(lp70
sS'145 245 1.57079632679'
p71
(lp72
sS'526 312 0.0'
p73
(lp74
sS'57 48 0.0'
p75
(lp76
sS'328 481 0.0'
p77
(lp78
sS'609 455 1.57079632679'
p79
(lp80
sS'390 206 1.57079632679'
p81
(lp82
sS'463 320 0.0'
p83
(lp84
sS'203 475 1.57079632679'
p85
(lp86
sS'202 628 1.57079632679'
p87
(lp88
sS'175 205 0.0'
p89
(lp90
sS'636 667 0.0'
p91
(lp92
sS'636 609 0.0'
p93
(lp94
sS'69 194 0.0'
p95
(lp96
sS'68 609 0.0'
p97
(lp98
sS'248 381 0.0'
p99
(lp100
sS'622 261 1.57079632679'
p101
(lp102
sS'548 349 0.0'
p103
(lp104
sS'258 344 0.0'
p105
(lp106
sS'496 652 1.57079632679'
p107
(lp108
sS'266 360 1.57079632679'
p109
(lp110
sS'597 101 0.0'
p111
(lp112
sS'123 498 0.0'
p113
(lp114
sS'200 293 1.57079632679'
p115
(lp116
sS'654 701 1.57079632679'
p117
(lp118
sS'563 369 1.57079632679'
p119
(lp120
sS'441 669 1.57079632679'
p121
(lp122
sS'440 483 1.57079632679'
p123
(lp124
sS'346 419 0.0'
p125
(lp126
sS'613 182 1.57079632679'
p127
(lp128
sS'161 551 0.0'
p129
(lp130
sS'60 668 1.57079632679'
p131
(lp132
sS'517 319 1.57079632679'
p133
(lp134
sS'241 712 0.0'
p135
(lp136
sS'76 185 0.0'
p137
(lp138
sS'113 680 0.0'
p139
(lp140
sS'91 708 0.0'
p141
(lp142
sS'359 480 0.0'
p143
(lp144
sS'681 485 0.0'
p145
(lp146
sS'412 494 1.57079632679'
p147
(lp148
sS'647 172 0.0'
p149
(lp150
sS'156 212 1.57079632679'
p151
(lp152
sS'371 105 0.0'
p153
(lp154
sS'380 449 0.0'
p155
(lp156
sS'252 256 1.57079632679'
p157
(lp158
sS'246 605 0.0'
p159
(lp160
sS'548 433 1.57079632679'
p161
(lp162
sS'127 679 0.0'
p163
(lp164
sS'568 672 1.57079632679'
p165
(lp166
sS'91 598 1.57079632679'
p167
(lp168
sS'607 498 0.0'
p169
(lp170
sS'451 685 0.0'
p171
(lp172
sS'523 339 0.0'
p173
(lp174
sS'646 645 0.0'
p175
(lp176
sS'649 722 0.0'
p177
(lp178
sS'265 327 1.57079632679'
p179
(lp180
sS'52 243 1.57079632679'
p181
(lp182
sS'522 614 1.57079632679'
p183
(lp184
sS'216 286 0.0'
p185
(lp186
sS'368 203 1.57079632679'
p187
(lp188
sS'236 285 1.57079632679'
p189
(lp190
sS'554 284 1.57079632679'
p191
(lp192
sS'256 354 0.0'
p193
(lp194
sS'218 539 1.57079632679'
p195
(lp196
sS'527 325 0.0'
p197
(lp198
sS'178 713 0.0'
p199
(lp200
sS'432 57 1.57079632679'
p201
(lp202
sS'689 353 0.0'
p203
(lp204
sS'326 728 0.0'
p205
(lp206
sS'564 606 1.57079632679'
p207
(lp208
sS'578 660 1.57079632679'
p209
(lp210
sS'622 655 1.57079632679'
p211
(lp212
sS'259 691 1.57079632679'
p213
(lp214
sS'282 609 1.57079632679'
p215
(lp216
sS'402 345 0.0'
p217
(lp218
sS'163 265 1.57079632679'
p219
(lp220
sS'261 414 0.0'
p221
(lp222
sS'584 56 0.0'
p223
(lp224
sS'257 370 1.57079632679'
p225
(lp226
sS'490 644 0.0'
p227
(lp228
sS'637 259 0.0'
p229
(lp230
sS'398 316 1.57079632679'
p231
(lp232
sS'237 464 1.57079632679'
p233
(lp234
sS'488 96 1.57079632679'
p235
(lp236
sS'252 181 1.57079632679'
p237
(lp238
sS'179 470 0.0'
p239
(lp240
sS'221 83 1.57079632679'
p241
(lp242
sS'60 480 1.57079632679'
p243
(lp244
sS'528 235 1.57079632679'
p245
(lp246
sS'410 443 1.57079632679'
p247
(lp248
sS'569 725 0.0'
p249
(lp250
sS'283 372 0.0'
p251
(lp252
sS'670 416 0.0'
p253
(lp254
sS'349 447 1.57079632679'
p255
(lp256
sS'243 436 1.57079632679'
p257
(lp258
sS'377 362 0.0'
p259
(lp260
sS'313 596 0.0'
p261
(lp262
sS'87 720 0.0'
p263
(lp264
sS'453 437 1.57079632679'
p265
(lp266
sS'521 197 1.57079632679'
p267
(lp268
sS'126 213 0.0'
p269
(lp270
sS'333 628 1.57079632679'
p271
(lp272
sS'62 263 1.57079632679'
p273
(lp274
sS'382 639 1.57079632679'
p275
(lp276
sS'139 517 1.57079632679'
p277
(lp278
sS'658 368 1.57079632679'
p279
(lp280
sS'488 47 0.0'
p281
(lp282
sS'295 621 1.57079632679'
p283
(lp284
sS'440 335 1.57079632679'
p285
(lp286
sS'256 499 0.0'
p287
(lp288
sS'491 118 1.57079632679'
p289
(lp290
sS'390 653 0.0'
p291
(lp292
sS'160 706 1.57079632679'
p293
(lp294
sS'127 319 1.57079632679'
p295
(lp296
sS'677 716 0.0'
p297
(lp298
sS'79 333 1.57079632679'
p299
(lp300
sS'595 75 0.0'
p301
(lp302
sS'668 78 1.57079632679'
p303
(lp304
sS'693 412 1.57079632679'
p305
(lp306
sS'147 315 0.0'
p307
(lp308
sS'74 71 1.57079632679'
p309
(lp310
sS'306 614 1.57079632679'
p311
(lp312
sS'562 348 0.0'
p313
(lp314
sS'552 239 1.57079632679'
p315
(lp316
sS'543 364 0.0'
p317
(lp318
sS'201 303 1.57079632679'
p319
(lp320
sS'283 620 1.57079632679'
p321
(lp322
sS'99 326 1.57079632679'
p323
(lp324
sS'446 660 1.57079632679'
p325
(lp326
sS'253 646 0.0'
p327
(lp328
sS'218 262 1.57079632679'
p329
(lp330
sS'478 115 1.57079632679'
p331
(lp332
sS'608 128 1.57079632679'
p333
(lp334
sS'659 483 0.0'
p335
(lp336
sS'298 397 1.57079632679'
p337
(lp338
sS'241 247 0.0'
p339
(lp340
sS'103 528 1.57079632679'
p341
(lp342
sS'656 497 0.0'
p343
(lp344
sS'694 203 1.57079632679'
p345
(lp346
sS'440 720 0.0'
p347
(lp348
sS'227 370 1.57079632679'
p349
(lp350
sS'691 473 0.0'
p351
(lp352
sS'189 212 1.57079632679'
p353
(lp354
sS'104 619 1.57079632679'
p355
(lp356
sS'365 495 0.0'
p357
(lp358
sS'211 688 1.57079632679'
p359
(lp360
sS'438 206 1.57079632679'
p361
(lp362
sS'646 203 0.0'
p363
(lp364
sS'255 89 0.0'
p365
(lp366
sS'400 496 0.0'
p367
(lp368
sS'690 401 0.0'
p369
(lp370
sS'129 658 0.0'
p371
(lp372
sS'127 71 0.0'
p373
(lp374
sS'403 381 1.57079632679'
p375
(lp376
sS'377 166 1.57079632679'
p377
(lp378
sS'429 656 0.0'
p379
(lp380
sS'440 195 1.57079632679'
p381
(lp382
sS'553 153 1.57079632679'
p383
(lp384
sS'380 436 0.0'
p385
(lp386
sS'406 485 1.57079632679'
p387
(lp388
sS'263 293 1.57079632679'
p389
(lp390
sS'590 374 1.57079632679'
p391
(lp392
sS'303 452 0.0'
p393
(lp394
sS'225 529 0.0'
p395
(lp396
sS'593 455 1.57079632679'
p397
(lp398
sS'537 219 1.57079632679'
p399
(lp400
sS'198 254 0.0'
p401
(lp402
sS'227 319 0.0'
p403
(lp404
sS'127 537 1.57079632679'
p405
(lp406
sS'524 351 0.0'
p407
(lp408
sS'214 218 1.57079632679'
p409
(lp410
sS'134 498 0.0'
p411
(lp412
sS'121 170 1.57079632679'
p413
(lp414
sS'308 469 1.57079632679'
p415
(lp416
sS'261 164 1.57079632679'
p417
(lp418
sS'669 605 0.0'
p419
(lp420
sS'338 437 0.0'
p421
(lp422
sS'101 726 0.0'
p423
(lp424
sS'59 588 0.0'
p425
(lp426
sS'253 461 0.0'
p427
(lp428
sS'98 556 1.57079632679'
p429
(lp430
sS'314 621 1.57079632679'
p431
(lp432
sS'296 605 1.57079632679'
p433
(lp434
sS'347 429 0.0'
p435
(lp436
sS'336 599 0.0'
p437
(lp438
sS'619 163 1.57079632679'
p439
(lp440
sS'528 415 1.57079632679'
p441
(lp442
sS'191 726 0.0'
p443
(lp444
sS'459 483 0.0'
p445
(lp446
sS'143 528 1.57079632679'
p447
(lp448
sS'170 681 1.57079632679'
p449
(lp450
sS'406 92 1.57079632679'
p451
(lp452
sS'595 349 0.0'
p453
(lp454
sS'362 343 1.57079632679'
p455
(lp456
sS'614 665 1.57079632679'
p457
(lp458
sS'237 178 0.0'
p459
(lp460
sS'248 481 0.0'
p461
(lp462
sS'418 706 1.57079632679'
p463
(lp464
sS'231 380 0.0'
p465
(lp466
sS'589 358 1.57079632679'
p467
(lp468
sS'588 83 1.57079632679'
p469
(lp470
sS'441 431 0.0'
p471
(lp472
sS'378 116 0.0'
p473
(lp474
sS'539 202 0.0'
p475
(lp476
sS'119 80 0.0'
p477
(lp478
sS'160 564 1.57079632679'
p479
(lp480
sS'539 235 1.57079632679'
p481
(lp482
sS'589 674 0.0'
p483
(lp484
sS'124 548 0.0'
p485
(lp486
sS'565 401 1.57079632679'
p487
(lp488
sS'473 357 1.57079632679'
p489
(lp490
sS'327 417 0.0'
p491
(lp492
sS'348 624 1.57079632679'
p493
(lp494
sS'437 649 0.0'
p495
(lp496
sS'343 611 1.57079632679'
p497
(lp498
sS'568 411 0.0'
p499
(lp500
sS'364 599 0.0'
p501
(lp502
sS'108 172 1.57079632679'
p503
(lp504
sS'400 154 1.57079632679'
p505
(lp506
sS'471 434 1.57079632679'
p507
(lp508
sS'279 387 0.0'
p509
(lp510
sS'270 409 1.57079632679'
p511
(lp512
sS'668 178 0.0'
p513
(lp514
sS'195 680 1.57079632679'
p515
(lp516
sS'595 421 1.57079632679'
p517
(lp518
sS'264 397 0.0'
p519
(lp520
sS'478 203 1.57079632679'
p521
(lp522
sS'169 53 0.0'
p523
(lp524
sS'477 486 1.57079632679'
p525
(lp526
sS'244 634 0.0'
p527
(lp528
sS'225 724 0.0'
p529
(lp530
sS'173 255 0.0'
p531
(lp532
sS'683 415 0.0'
p533
(lp534
sS'572 471 1.57079632679'
p535
(lp536
sS'101 181 1.57079632679'
p537
(lp538
sS'462 125 1.57079632679'
p539
(lp540
sS'263 78 1.57079632679'
p541
(lp542
sS'630 645 1.57079632679'
p543
(lp544
sS'86 97 1.57079632679'
p545
(lp546
sS'567 697 1.57079632679'
p547
(lp548
sS'145 490 0.0'
p549
(lp550
sS'687 637 0.0'
p551
(lp552
sS'255 442 1.57079632679'
p553
(lp554
sS'103 682 0.0'
p555
(lp556
sS'449 501 0.0'
p557
(lp558
sS'206 264 0.0'
p559
(lp560
sS'345 475 0.0'
p561
(lp562
sS'396 666 0.0'
p563
(lp564
sS'196 698 1.57079632679'
p565
(lp566
sS'182 536 0.0'
p567
(lp568
sS'570 48 0.0'
p569
(lp570
sS'141 165 0.0'
p571
(lp572
sS'338 490 1.57079632679'
p573
(lp574
sS'219 614 0.0'
p575
(lp576
sS'624 671 1.57079632679'
p577
(lp578
sS'216 232 1.57079632679'
p579
(lp580
sS'581 343 0.0'
p581
(lp582
sS'463 426 1.57079632679'
p583
(lp584
sS'142 659 0.0'
p585
(lp586
sS'679 696 0.0'
p587
(lp588
sS'434 711 0.0'
p589
(lp590
sS'140 189 1.57079632679'
p591
(lp592
sS'361 717 0.0'
p593
(lp594
sS'407 694 0.0'
p595
(lp596
sS'578 178 1.57079632679'
p597
(lp598
sS'356 382 1.57079632679'
p599
(lp600
sS'430 483 0.0'
p601
(lp602
sS'507 356 0.0'
p603
(lp604
sS'492 598 0.0'
p605
(lp606
sS'550 76 1.57079632679'
p607
(lp608
sS'555 185 0.0'
p609
(lp610
sS'655 654 1.57079632679'
p611
(lp612
sS'245 66 0.0'
p613
(lp614
sS'532 623 0.0'
p615
(lp616
sS'208 207 1.57079632679'
p617
(lp618
sS'633 728 0.0'
p619
(lp620
sS'170 545 0.0'
p621
(lp622
sS'182 283 0.0'
p623
(lp624
sS'616 688 0.0'
p625
(lp626
sS'263 153 1.57079632679'
p627
(lp628
sS'94 610 0.0'
p629
(lp630
sS'409 609 1.57079632679'
p631
(lp632
sS'171 281 1.57079632679'
p633
(lp634
sS'370 455 1.57079632679'
p635
(lp636
sS'95 336 1.57079632679'
p637
(lp638
sS'440 323 1.57079632679'
p639
(lp640
sS'213 51 0.0'
p641
(lp642
sS'471 334 0.0'
p643
(lp644
sS'601 60 0.0'
p645
(lp646
sS'296 491 0.0'
p647
(lp648
sS'232 450 0.0'
p649
(lp650
sS'514 212 0.0'
p651
(lp652
sS'249 406 1.57079632679'
p653
(lp654
sS'209 494 1.57079632679'
p655
(lp656
sS'91 119 0.0'
p657
(lp658
sS'112 507 1.57079632679'
p659
(lp660
sS'629 273 1.57079632679'
p661
(lp662
sS'193 510 1.57079632679'
p663
(lp664
sS'105 344 1.57079632679'
p665
(lp666
sS'534 370 0.0'
p667
(lp668
sS'172 529 1.57079632679'
p669
(lp670
sS'224 470 0.0'
p671
(lp672
sS'103 112 1.57079632679'
p673
(lp674
sS'403 329 0.0'
p675
(lp676
sS'251 661 1.57079632679'
p677
(lp678
sS'625 494 0.0'
p679
(lp680
sS'397 134 1.57079632679'
p681
(lp682
sS'204 362 1.57079632679'
p683
(lp684
sS'536 47 0.0'
p685
(lp686
sS'423 66 1.57079632679'
p687
(lp688
sS'339 409 0.0'
p689
(lp690
sS'460 351 1.57079632679'
p691
(lp692
sS'100 127 1.57079632679'
p693
(lp694
sS'605 707 1.57079632679'
p695
(lp696
sS'340 638 0.0'
p697
(lp698
sS'101 658 0.0'
p699
(lp700
sS'560 433 1.57079632679'
p701
(lp702
sS'540 445 1.57079632679'
p703
(lp704
sS'642 357 1.57079632679'
p705
(lp706
sS'453 341 1.57079632679'
p707
(lp708
sS'602 392 0.0'
p709
(lp710
sS'282 405 0.0'
p711
(lp712
sS'195 551 0.0'
p713
(lp714
sS'511 197 1.57079632679'
p715
(lp716
sS'409 121 1.57079632679'
p717
(lp718
sS'225 634 1.57079632679'
p719
(lp720
sS'584 400 1.57079632679'
p721
(lp722
sS'307 439 1.57079632679'
p723
(lp724
sS'470 76 0.0'
p725
(lp726
sS'605 171 1.57079632679'
p727
(lp728
sS'110 314 0.0'
p729
(lp730
sS'318 407 1.57079632679'
p731
(lp732
sS'377 490 1.57079632679'
p733
(lp734
sS'120 47 0.0'
p735
(lp736
sS'612 148 0.0'
p737
(lp738
sS'426 685 1.57079632679'
p739
(lp740
sS'370 476 1.57079632679'
p741
(lp742
sS'224 656 1.57079632679'
p743
(lp744
sS'170 228 0.0'
p745
(lp746
sS'374 339 1.57079632679'
p747
(lp748
sS'212 101 1.57079632679'
p749
(lp750
sS'566 180 0.0'
p751
(lp752
sS'579 163 1.57079632679'
p753
(lp754
sS'81 198 1.57079632679'
p755
(lp756
sS'67 331 0.0'
p757
(lp758
sS'246 328 0.0'
p759
(lp760
sS'53 270 1.57079632679'
p761
(lp762
sS'526 363 0.0'
p763
(lp764
sS'224 71 0.0'
p765
(lp766
sS'217 300 1.57079632679'
p767
(lp768
sS'239 339 0.0'
p769
(lp770
sS'77 672 1.57079632679'
p771
(lp772
sS'554 379 1.57079632679'
p773
(lp774
sS'375 700 1.57079632679'
p775
(lp776
sS'632 683 0.0'
p777
(lp778
sS'493 65 1.57079632679'
p779
(lp780
sS'208 728 0.0'
p781
(lp782
sS'64 67 0.0'
p783
(lp784
sS'559 647 1.57079632679'
p785
(lp786
sS'583 715 0.0'
p787
(lp788
sS'498 669 0.0'
p789
(lp790
sS'295 474 0.0'
p791
(lp792
sS'251 424 1.57079632679'
p793
(lp794
sS'395 641 1.57079632679'
p795
(lp796
sS'300 429 0.0'
p797
(lp798
sS'336 720 0.0'
p799
(lp800
sS'578 410 1.57079632679'
p801
(lp802
sS'100 191 0.0'
p803
(lp804
sS'582 94 0.0'
p805
(lp806
sS'420 717 0.0'
p807
(lp808
sS'485 57 1.57079632679'
p809
(lp810
sS'147 558 1.57079632679'
p811
(lp812
sS'353 464 0.0'
p813
(lp814
sS'181 334 1.57079632679'
p815
(lp816
sS'563 59 0.0'
p817
(lp818
sS'83 642 0.0'
p819
(lp820
sS'107 88 1.57079632679'
p821
(lp822
sS'443 58 0.0'
p823
(lp824
sS'690 77 1.57079632679'
p825
(lp826
sS'213 599 0.0'
p827
(lp828
sS'194 233 1.57079632679'
p829
(lp830
sS'197 313 0.0'
p831
(lp832
sS'656 637 1.57079632679'
p833
(lp834
sS'491 633 0.0'
p835
(lp836
sS'356 608 0.0'
p837
(lp838
sS'550 46 0.0'
p839
(lp840
sS'684 212 0.0'
p841
(lp842
sS'465 206 0.0'
p843
(lp844
sS'289 416 1.57079632679'
p845
(lp846
sS'345 704 0.0'
p847
(lp848
sS'179 482 0.0'
p849
(lp850
sS'602 370 0.0'
p851
(lp852
sS'304 640 0.0'
p853
(lp854
sS'392 400 1.57079632679'
p855
(lp856
sS'220 562 1.57079632679'
p857
(lp858
sS'406 69 1.57079632679'
p859
(lp860
sS'55 628 1.57079632679'
p861
(lp862
sS'377 384 0.0'
p863
(lp864
sS'175 318 1.57079632679'
p865
(lp866
sS'178 370 0.0'
p867
(lp868
sS'184 240 1.57079632679'
p869
(lp870
sS'461 610 1.57079632679'
p871
(lp872
sS'481 654 1.57079632679'
p873
(lp874
sS'129 557 1.57079632679'
p875
(lp876
sS'397 446 1.57079632679'
p877
(lp878
sS'440 277 1.57079632679'
p879
(lp880
sS'649 668 1.57079632679'
p881
(lp882
sS'364 728 0.0'
p883
(lp884
sS'473 319 0.0'
p885
(lp886
sS'417 471 1.57079632679'
p887
(lp888
sS'600 441 0.0'
p889
(lp890
sS'221 512 1.57079632679'
p891
(lp892
sS'369 181 0.0'
p893
(lp894
sS'170 348 1.57079632679'
p895
(lp896
sS'659 65 1.57079632679'
p897
(lp898
sS'516 233 0.0'
p899
(lp900
sS'137 538 0.0'
p901
(lp902
sS'413 370 0.0'
p903
(lp904
sS'391 435 0.0'
p905
(lp906
sS'444 303 0.0'
p907
(lp908
sS'696 380 1.57079632679'
p909
(lp910
sS'603 467 0.0'
p911
(lp912
sS'671 60 1.57079632679'
p913
(lp914
sS'337 449 1.57079632679'
p915
(lp916
sS'263 486 1.57079632679'
p917
(lp918
sS'689 715 0.0'
p919
(lp920
sS'109 47 0.0'
p921
(lp922
sS'487 332 1.57079632679'
p923
(lp924
sS'123 477 1.57079632679'
p925
(lp926
sS'548 329 1.57079632679'
p927
(lp928
sS'168 292 1.57079632679'
p929
(lp930
sS'236 275 1.57079632679'
p931
(lp932
sS'415 662 1.57079632679'
p933
(lp934
sS'385 479 0.0'
p935
(lp936
sS'607 428 1.57079632679'
p937
(lp938
sS'403 405 0.0'
p939
(lp940
sS'589 175 0.0'
p941
(lp942
sS'332 428 1.57079632679'
p943
(lp944
sS'365 464 0.0'
p945
(lp946
sS'390 367 1.57079632679'
p947
(lp948
sS'553 392 0.0'
p949
(lp950
sS'225 331 0.0'
p951
(lp952
sS'583 471 1.57079632679'
p953
(lp954
sS'528 447 1.57079632679'
p955
(lp956
sS'112 631 0.0'
p957
(lp958
sS'83 125 0.0'
p959
(lp960
sS'420 333 0.0'
p961
(lp962
sS'603 195 1.57079632679'
p963
(lp964
sS'627 618 1.57079632679'
p965
(lp966
sS'434 295 1.57079632679'
p967
(lp968
sS'478 102 0.0'
p969
(lp970
sS'301 410 0.0'
p971
(lp972
sS'429 200 1.57079632679'
p973
(lp974
sS'468 631 0.0'
p975
(lp976
sS'414 649 1.57079632679'
p977
(lp978
sS'244 450 0.0'
p979
(lp980
sS'90 350 0.0'
p981
(lp982
sS'59 616 1.57079632679'
p983
(lp984
sS'387 166 1.57079632679'
p985
(lp986
sS'688 151 0.0'
p987
(lp988
sS'446 350 0.0'
p989
(lp990
sS'253 700 0.0'
p991
(lp992
sS'555 305 1.57079632679'
p993
(lp994
sS'384 600 0.0'
p995
(lp996
sS'170 720 1.57079632679'
p997
(lp998
sS'213 253 0.0'
p999
(lp1000
sS'230 493 1.57079632679'
p1001
(lp1002
sS'197 204 0.0'
p1003
(lp1004
sS'212 673 1.57079632679'
p1005
(lp1006
sS'500 213 0.0'
p1007
(lp1008
sS'563 623 0.0'
p1009
(lp1010
sS'658 353 0.0'
p1011
(lp1012
sS'386 156 0.0'
p1013
(lp1014
sS'512 340 1.57079632679'
p1015
(lp1016
sS'381 685 1.57079632679'
p1017
(lp1018
sS'204 517 0.0'
p1019
(lp1020
sS'538 411 0.0'
p1021
(lp1022
sS'208 713 1.57079632679'
p1023
(lp1024
sS'161 532 0.0'
p1025
(lp1026
sS'123 184 1.57079632679'
p1027
(lp1028
sS'77 486 0.0'
p1029
(lp1030
sS'229 46 0.0'
p1031
(lp1032
sS'579 673 1.57079632679'
p1033
(lp1034
sS'213 387 1.57079632679'
p1035
(lp1036
sS'560 80 0.0'
p1037
(lp1038
sS'425 304 0.0'
p1039
(lp1040
sS'596 151 1.57079632679'
p1041
(lp1042
sS'510 327 0.0'
p1043
(lp1044
sS'662 726 0.0'
p1045
(lp1046
sS'578 701 1.57079632679'
p1047
(lp1048
sS'597 112 1.57079632679'
p1049
(lp1050
sS'215 328 0.0'
p1051
(lp1052
sS'601 406 1.57079632679'
p1053
(lp1054
sS'412 202 0.0'
p1055
(lp1056
sS'261 384 1.57079632679'
p1057
(lp1058
sS'195 265 1.57079632679'
p1059
(lp1060
sS'485 678 0.0'
p1061
(lp1062
sS'418 188 0.0'
p1063
(lp1064
sS'367 121 0.0'
p1065
(lp1066
sS'668 399 1.57079632679'
p1067
(lp1068
sS'430 468 1.57079632679'
p1069
(lp1070
sS'161 354 1.57079632679'
p1071
(lp1072
sS'257 48 0.0'
p1073
(lp1074
sS'146 478 0.0'
p1075
(lp1076
sS'196 711 0.0'
p1077
(lp1078
sS'141 81 1.57079632679'
p1079
(lp1080
sS'216 371 0.0'
p1081
(lp1082
sS'643 478 0.0'
p1083
(lp1084
sS'535 395 1.57079632679'
p1085
(lp1086
sS'414 433 0.0'
p1087
(lp1088
sS'387 417 0.0'
p1089
(lp1090
sS'624 699 1.57079632679'
p1091
(lp1092
sS'577 358 0.0'
p1093
(lp1094
sS'243 397 0.0'
p1095
(lp1096
sS'210 352 1.57079632679'
p1097
(lp1098
sS'135 208 0.0'
p1099
(lp1100
sS'415 455 1.57079632679'
p1101
(lp1102
sS'226 309 1.57079632679'
p1103
(lp1104
sS'604 694 0.0'
p1105
(lp1106
sS'105 152 1.57079632679'
p1107
(lp1108
sS'662 473 0.0'
p1109
(lp1110
sS'670 193 0.0'
p1111
(lp1112
sS'116 486 1.57079632679'
p1113
(lp1114
sS'235 325 0.0'
p1115
(lp1116
sS'430 356 1.57079632679'
p1117
(lp1118
sS'357 633 0.0'
p1119
(lp1120
sS'192 477 0.0'
p1121
(lp1122
sS'428 342 1.57079632679'
p1123
(lp1124
sS'403 108 0.0'
p1125
(lp1126
sS'98 641 1.57079632679'
p1127
(lp1128
sS'680 387 0.0'
p1129
(lp1130
sS'277 468 0.0'
p1131
(lp1132
sS'410 416 1.57079632679'
p1133
(lp1134
sS'251 191 0.0'
p1135
(lp1136
sS'467 110 1.57079632679'
p1137
(lp1138
sS'225 391 0.0'
p1139
(lp1140
sS'686 369 1.57079632679'
p1141
(lp1142
sS'547 227 0.0'
p1143
(lp1144
sS'238 313 1.57079632679'
p1145
(lp1146
sS'601 666 1.57079632679'
p1147
(lp1148
sS'580 372 1.57079632679'
p1149
(lp1150
sS'216 503 0.0'
p1151
(lp1152
sS'293 456 0.0'
p1153
(lp1154
sS'660 709 1.57079632679'
p1155
(lp1156
sS'132 98 1.57079632679'
p1157
(lp1158
sS'680 194 0.0'
p1159
(lp1160
sS'111 106 0.0'
p1161
(lp1162
sS'320 445 0.0'
p1163
(lp1164
sS'365 686 1.57079632679'
p1165
(lp1166
sS'257 61 1.57079632679'
p1167
(lp1168
sS'204 506 1.57079632679'
p1169
(lp1170
sS'406 394 0.0'
p1171
(lp1172
sS'309 378 0.0'
p1173
(lp1174
sS'539 385 0.0'
p1175
(lp1176
sS'451 92 0.0'
p1177
(lp1178
sS'604 485 1.57079632679'
p1179
(lp1180
sS'95 140 1.57079632679'
p1181
(lp1182
sS'489 213 0.0'
p1183
(lp1184
sS'494 191 0.0'
p1185
(lp1186
sS'225 227 1.57079632679'
p1187
(lp1188
sS'629 195 1.57079632679'
p1189
(lp1190
sS'373 630 1.57079632679'
p1191
(lp1192
sS'179 265 1.57079632679'
p1193
(lp1194
sS'577 70 0.0'
p1195
(lp1196
sS'557 172 0.0'
p1197
(lp1198
sS'180 702 1.57079632679'
p1199
(lp1200
sS'667 386 1.57079632679'
p1201
(lp1202
sS'551 200 1.57079632679'
p1203
(lp1204
sS'476 47 0.0'
p1205
(lp1206
sS'167 306 0.0'
p1207
(lp1208
sS'253 625 0.0'
p1209
(lp1210
sS'654 162 1.57079632679'
p1211
(lp1212
sS'103 201 1.57079632679'
p1213
(lp1214
sS'381 98 1.57079632679'
p1215
(lp1216
sS'429 667 0.0'
p1217
(lp1218
sS'139 63 1.57079632679'
p1219
(lp1220
sS'627 175 0.0'
p1221
(lp1222
sS'698 489 1.57079632679'
p1223
(lp1224
sS'60 362 0.0'
p1225
(lp1226
sS'384 196 0.0'
p1227
(lp1228
sS'378 394 0.0'
p1229
(lp1230
sS'230 411 0.0'
p1231
(lp1232
sS'368 193 0.0'
p1233
(lp1234
sS'60 113 1.57079632679'
p1235
(lp1236
sS'109 705 1.57079632679'
p1237
(lp1238
sS'179 56 0.0'
p1239
(lp1240
sS'454 674 0.0'
p1241
(lp1242
sS'234 426 1.57079632679'
p1243
(lp1244
sS'235 642 0.0'
p1245
(lp1246
sS'517 625 0.0'
p1247
(lp1248
sS'160 240 1.57079632679'
p1249
(lp1250
sS'69 367 0.0'
p1251
(lp1252
sS'363 393 1.57079632679'
p1253
(lp1254
sS'361 159 1.57079632679'
p1255
(lp1256
sS'585 430 1.57079632679'
p1257
(lp1258
sS'204 444 1.57079632679'
p1259
(lp1260
sS'382 135 1.57079632679'
p1261
(lp1262
sS'276 637 0.0'
p1263
(lp1264
sS'585 146 0.0'
p1265
(lp1266
sS'426 382 1.57079632679'
p1267
(lp1268
sS'429 214 0.0'
p1269
(lp1270
sS'672 475 0.0'
p1271
(lp1272
sS'371 404 1.57079632679'
p1273
(lp1274
sS'282 453 0.0'
p1275
(lp1276
sS'58 97 1.57079632679'
p1277
(lp1278
sS'578 441 1.57079632679'
p1279
(lp1280
sS'220 166 0.0'
p1281
(lp1282
sS'326 391 1.57079632679'
p1283
(lp1284
sS'307 418 1.57079632679'
p1285
(lp1286
sS'236 614 0.0'
p1287
(lp1288
sS'144 107 0.0'
p1289
(lp1290
sS'114 569 1.57079632679'
p1291
(lp1292
sS'523 597 0.0'
p1293
(lp1294
sS'88 183 0.0'
p1295
(lp1296
sS'555 213 1.57079632679'
p1297
(lp1298
sS'550 408 0.0'
p1299
(lp1300
sS'56 654 1.57079632679'
p1301
(lp1302
sS'245 79 0.0'
p1303
(lp1304
sS'104 576 1.57079632679'
p1305
(lp1306
sS'216 274 1.57079632679'
p1307
(lp1308
sS'475 669 0.0'
p1309
(lp1310
sS'61 719 0.0'
p1311
(lp1312
sS'611 443 1.57079632679'
p1313
(lp1314
sS'256 279 0.0'
p1315
(lp1316
sS'189 293 1.57079632679'
p1317
(lp1318
sS'251 210 0.0'
p1319
(lp1320
sS'226 275 0.0'
p1321
(lp1322
sS'579 691 1.57079632679'
p1323
(lp1324
sS'685 610 0.0'
p1325
(lp1326
sS'409 80 1.57079632679'
p1327
(lp1328
sS'697 58 1.57079632679'
p1329
(lp1330
sS'677 500 0.0'
p1331
(lp1332
sS'633 655 0.0'
p1333
(lp1334
sS'469 448 0.0'
p1335
(lp1336
sS'86 71 1.57079632679'
p1337
(lp1338
sS'53 72 1.57079632679'
p1339
(lp1340
sS'236 223 1.57079632679'
p1341
(lp1342
sS'148 233 1.57079632679'
p1343
(lp1344
sS'478 623 1.57079632679'
p1345
(lp1346
sS'92 209 0.0'
p1347
(lp1348
sS'236 59 1.57079632679'
p1349
(lp1350
sS'418 284 0.0'
p1351
(lp1352
sS'622 203 0.0'
p1353
(lp1354
sS'208 648 0.0'
p1355
(lp1356
sS'611 647 1.57079632679'
p1357
(lp1358
sS'698 153 1.57079632679'
p1359
(lp1360
sS'657 623 0.0'
p1361
(lp1362
sS'84 85 0.0'
p1363
(lp1364
sS'672 223 0.0'
p1365
(lp1366
sS'214 176 1.57079632679'
p1367
(lp1368
sS'113 69 0.0'
p1369
(lp1370
sS'68 95 1.57079632679'
p1371
(lp1372
sS'614 285 0.0'
p1373
(lp1374
sS'380 463 1.57079632679'
p1375
(lp1376
sS'265 720 1.57079632679'
p1377
(lp1378
sS'325 605 1.57079632679'
p1379
(lp1380
sS'349 718 0.0'
p1381
(lp1382
sS'225 421 1.57079632679'
p1383
(lp1384
sS'643 714 1.57079632679'
p1385
(lp1386
sS'209 339 1.57079632679'
p1387
(lp1388
sS'619 355 0.0'
p1389
(lp1390
sS'443 463 1.57079632679'
p1391
(lp1392
sS'83 631 0.0'
p1393
(lp1394
sS'361 373 0.0'
p1395
(lp1396
sS'205 241 0.0'
p1397
(lp1398
sS'566 200 0.0'
p1399
(lp1400
sS'652 296 1.57079632679'
p1401
(lp1402
sS'504 242 1.57079632679'
p1403
(lp1404
sS'380 183 1.57079632679'
p1405
(lp1406
sS'674 348 0.0'
p1407
(lp1408
sS'567 443 0.0'
p1409
(lp1410
sS'555 612 1.57079632679'
p1411
(lp1412
sS'239 683 0.0'
p1413
(lp1414
sS'624 377 0.0'
p1415
(lp1416
sS'373 672 1.57079632679'
p1417
(lp1418
sS'208 465 1.57079632679'
p1419
(lp1420
sS'220 408 0.0'
p1421
(lp1422
sS'233 192 1.57079632679'
p1423
(lp1424
sS'496 320 0.0'
p1425
(lp1426
sS'171 556 1.57079632679'
p1427
(lp1428
sS'110 653 1.57079632679'
p1429
(lp1430
sS'689 49 0.0'
p1431
(lp1432
sS'245 229 0.0'
p1433
(lp1434
sS'611 719 1.57079632679'
p1435
(lp1436
sS'427 267 0.0'
p1437
(lp1438
sS'656 272 1.57079632679'
p1439
(lp1440
sS'635 182 1.57079632679'
p1441
(lp1442
sS'435 678 1.57079632679'
p1443
(lp1444
sS'678 400 1.57079632679'
p1445
(lp1446
sS'149 69 1.57079632679'
p1447
(lp1448
sS'543 610 1.57079632679'
p1449
(lp1450
sS'271 600 0.0'
p1451
(lp1452
sS'369 141 0.0'
p1453
(lp1454
sS'664 162 1.57079632679'
p1455
(lp1456
sS'207 610 1.57079632679'
p1457
(lp1458
sS'427 501 0.0'
p1459
(lp1460
sS'452 717 0.0'
p1461
(lp1462
sS'193 528 1.57079632679'
p1463
(lp1464
sS'193 363 0.0'
p1465
(lp1466
sS'307 392 0.0'
p1467
(lp1468
sS'139 671 1.57079632679'
p1469
(lp1470
sS'210 699 0.0'
p1471
(lp1472
sS'79 61 0.0'
p1473
(lp1474
sS'670 624 1.57079632679'
p1475
(lp1476
sS'293 382 0.0'
p1477
(lp1478
sS'582 192 0.0'
p1479
(lp1480
sS'406 468 1.57079632679'
p1481
(lp1482
sS'142 200 0.0'
p1483
(lp1484
sS'421 84 0.0'
p1485
(lp1486
sS'637 146 0.0'
p1487
(lp1488
sS'126 106 0.0'
p1489
(lp1490
sS'70 590 0.0'
p1491
(lp1492
sS'179 502 0.0'
p1493
(lp1494
sS'70 108 0.0'
p1495
(lp1496
sS'368 315 0.0'
p1497
(lp1498
sS'236 73 1.57079632679'
p1499
(lp1500
sS'217 186 0.0'
p1501
(lp1502
sS'152 518 0.0'
p1503
(lp1504
sS'89 621 0.0'
p1505
(lp1506
sS'262 255 1.57079632679'
p1507
(lp1508
sS'408 317 1.57079632679'
p1509
(lp1510
sS'355 498 0.0'
p1511
(lp1512
sS'465 673 0.0'
p1513
(lp1514
sS'97 96 1.57079632679'
p1515
(lp1516
sS'480 74 0.0'
p1517
(lp1518
sS'212 481 0.0'
p1519
(lp1520
sS'107 538 0.0'
p1521
(lp1522
sS'696 189 1.57079632679'
p1523
(lp1524
sS'78 728 0.0'
p1525
(lp1526
sS'329 616 1.57079632679'
p1527
(lp1528
sS'224 242 0.0'
p1529
(lp1530
sS'500 203 1.57079632679'
p1531
(lp1532
sS'264 705 1.57079632679'
p1533
(lp1534
sS'563 636 1.57079632679'
p1535
(lp1536
sS'371 648 0.0'
p1537
(lp1538
sS'208 560 1.57079632679'
p1539
(lp1540
sS'250 615 0.0'
p1541
(lp1542
sS'325 467 0.0'
p1543
(lp1544
sS'222 453 0.0'
p1545
(lp1546
sS'101 696 1.57079632679'
p1547
(lp1548
sS'385 707 0.0'
p1549
(lp1550
sS'226 288 0.0'
p1551
(lp1552
sS'645 186 1.57079632679'
p1553
(lp1554
sS'401 201 0.0'
p1555
(lp1556
sS'677 73 1.57079632679'
p1557
(lp1558
sS'225 645 1.57079632679'
p1559
(lp1560
sS'611 362 0.0'
p1561
(lp1562
sS'388 355 1.57079632679'
p1563
(lp1564
sS'588 488 0.0'
p1565
(lp1566
sS'474 131 0.0'
p1567
(lp1568
sS'430 277 1.57079632679'
p1569
(lp1570
sS'131 82 0.0'
p1571
(lp1572
sS'422 492 1.57079632679'
p1573
(lp1574
sS'58 698 0.0'
p1575
(lp1576
sS'484 313 0.0'
p1577
(lp1578
sS'455 204 0.0'
p1579
(lp1580
sS'589 499 0.0'
p1581
(lp1582
sS'408 707 0.0'
p1583
(lp1584
sS'146 218 0.0'
p1585
(lp1586
sS'374 416 1.57079632679'
p1587
(lp1588
sS'680 161 0.0'
p1589
(lp1590
sS'423 440 1.57079632679'
p1591
(lp1592
sS'375 349 0.0'
p1593
(lp1594
sS'641 690 1.57079632679'
p1595
(lp1596
sS'262 476 1.57079632679'
p1597
(lp1598
sS'694 706 1.57079632679'
p1599
(lp1600
sS'238 659 1.57079632679'
p1601
(lp1602
sS'274 482 0.0'
p1603
(lp1604
sS'416 394 1.57079632679'
p1605
(lp1606
sS'495 87 1.57079632679'
p1607
(lp1608
sS'393 458 0.0'
p1609
(lp1610
sS'236 236 1.57079632679'
p1611
(lp1612
sS'522 187 0.0'
p1613
(lp1614
sS'72 118 1.57079632679'
p1615
(lp1616
sS'120 196 1.57079632679'
p1617
(lp1618
sS'403 635 1.57079632679'
p1619
(lp1620
sS'324 434 1.57079632679'
p1621
(lp1622
sS'465 309 0.0'
p1623
(lp1624
sS'451 471 0.0'
p1625
(lp1626
sS'399 625 0.0'
p1627
(lp1628
sS'245 370 0.0'
p1629
(lp1630
sS'139 549 0.0'
p1631
(lp1632
sS'211 433 1.57079632679'
p1633
(lp1634
sS'153 183 1.57079632679'
p1635
(lp1636
sS'64 678 0.0'
p1637
(lp1638
sS'354 409 1.57079632679'
p1639
(lp1640
sS'574 425 1.57079632679'
p1641
(lp1642
sS'629 157 1.57079632679'
p1643
(lp1644
sS'145 504 1.57079632679'
p1645
(lp1646
sS'151 255 0.0'
p1647
(lp1648
sS'465 194 0.0'
p1649
(lp1650
sS'555 359 1.57079632679'
p1651
(lp1652
sS'358 619 1.57079632679'
p1653
(lp1654
sS'535 429 1.57079632679'
p1655
(lp1656
sS'95 164 1.57079632679'
p1657
(lp1658
sS'132 637 1.57079632679'
p1659
(lp1660
sS'316 483 1.57079632679'
p1661
(lp1662
sS'244 296 0.0'
p1663
(lp1664
sS'93 474 0.0'
p1665
(lp1666
sS'341 464 0.0'
p1667
(lp1668
sS'93 677 0.0'
p1669
(lp1670
sS'81 614 1.57079632679'
p1671
(lp1672
sS'420 406 1.57079632679'
p1673
(lp1674
sS'68 628 1.57079632679'
p1675
(lp1676
sS'616 728 0.0'
p1677
(lp1678
sS'474 641 0.0'
p1679
(lp1680
sS'440 494 0.0'
p1681
(lp1682
sS'244 359 1.57079632679'
p1683
(lp1684
sS'153 684 0.0'
p1685
(lp1686
sS'377 727 0.0'
p1687
(lp1688
sS'80 594 1.57079632679'
p1689
(lp1690
sS'487 616 1.57079632679'
p1691
(lp1692
sS'245 202 1.57079632679'
p1693
(lp1694
sS'262 121 1.57079632679'
p1695
(lp1696
sS'192 351 0.0'
p1697
(lp1698
sS'147 539 0.0'
p1699
(lp1700
sS'221 712 0.0'
p1701
(lp1702
sS'486 663 0.0'
p1703
(lp1704
sS'472 612 0.0'
p1705
(lp1706
sS'205 418 1.57079632679'
p1707
(lp1708
sS'144 641 1.57079632679'
p1709
(lp1710
sS'113 547 0.0'
p1711
(lp1712
sS'384 340 0.0'
p1713
(lp1714
sS'589 726 0.0'
p1715
(lp1716
sS'598 493 1.57079632679'
p1717
(lp1718
sS'167 331 1.57079632679'
p1719
(lp1720
sS'292 441 1.57079632679'
p1721
(lp1722
sS'428 327 1.57079632679'
p1723
(lp1724
sS'257 239 1.57079632679'
p1725
(lp1726
sS'415 307 1.57079632679'
p1727
(lp1728
sS'106 475 0.0'
p1729
(lp1730
sS'389 380 0.0'
p1731
(lp1732
sS'686 245 0.0'
p1733
(lp1734
sS'366 364 1.57079632679'
p1735
(lp1736
sS'413 685 1.57079632679'
p1737
(lp1738
sS'221 701 0.0'
p1739
(lp1740
sS'63 642 1.57079632679'
p1741
(lp1742
sS'418 319 1.57079632679'
p1743
(lp1744
sS'462 643 1.57079632679'
p1745
(lp1746
sS'566 384 0.0'
p1747
(lp1748
sS'230 257 0.0'
p1749
(lp1750
sS'168 693 0.0'
p1751
(lp1752
sS'594 385 0.0'
p1753
(lp1754
sS'193 57 0.0'
p1755
(lp1756
sS'448 452 1.57079632679'
p1757
(lp1758
sS'459 73 0.0'
p1759
(lp1760
sS'182 559 0.0'
p1761
(lp1762
sS'55 122 1.57079632679'
p1763
(lp1764
sS'603 160 1.57079632679'
p1765
(lp1766
sS'257 130 0.0'
p1767
(lp1768
sS'255 146 1.57079632679'
p1769
(lp1770
sS'124 517 1.57079632679'
p1771
(lp1772
sS'220 438 1.57079632679'
p1773
(lp1774
sS'576 649 1.57079632679'
p1775
(lp1776
sS'399 212 0.0'
p1777
(lp1778
sS'182 355 1.57079632679'
p1779
(lp1780
sS'84 368 0.0'
p1781
(lp1782
sS'489 361 0.0'
p1783
(lp1784
sS'72 654 1.57079632679'
p1785
(lp1786
sS'343 379 1.57079632679'
p1787
(lp1788
sS'202 573 0.0'
p1789
(lp1790
sS'197 280 0.0'
p1791
(lp1792
sS'163 673 0.0'
p1793
(lp1794
sS'77 346 1.57079632679'
p1795
(lp1796
sS'361 109 1.57079632679'
p1797
(lp1798
sS'240 265 0.0'
p1799
(lp1800
sS'404 651 1.57079632679'
p1801
(lp1802
sS'508 604 0.0'
p1803
(lp1804
sS'576 490 1.57079632679'
p1805
(lp1806
sS'408 146 1.57079632679'
p1807
(lp1808
sS'650 227 1.57079632679'
p1809
(lp1810
sS'178 306 1.57079632679'
p1811
(lp1812
sS'61 222 1.57079632679'
p1813
(lp1814
sS'383 614 0.0'
p1815
(lp1816
sS'524 633 0.0'
p1817
(lp1818
sS'212 585 1.57079632679'
p1819
(lp1820
sS'544 622 1.57079632679'
p1821
(lp1822
sS'607 274 1.57079632679'
p1823
(lp1824
sS'380 148 1.57079632679'
p1825
(lp1826
sS'677 239 0.0'
p1827
(lp1828
sS'588 703 0.0'
p1829
(lp1830
sS'683 624 0.0'
p1831
(lp1832
sS'592 127 1.57079632679'
p1833
(lp1834
sS'407 185 1.57079632679'
p1835
(lp1836
sS'565 89 0.0'
p1837
(lp1838
sS'134 249 1.57079632679'
p1839
(lp1840
sS'670 152 0.0'
p1841
(lp1842
sS'60 322 0.0'
p1843
(lp1844
sS'154 57 0.0'
p1845
(lp1846
sS'203 399 1.57079632679'
p1847
(lp1848
sS'481 191 0.0'
p1849
(lp1850
sS'266 619 0.0'
p1851
(lp1852
sS'235 625 0.0'
p1853
(lp1854
sS'537 325 0.0'
p1855
(lp1856
sS'317 634 1.57079632679'
p1857
(lp1858
sS'615 192 1.57079632679'
p1859
(lp1860
sS'287 631 1.57079632679'
p1861
(lp1862
sS'469 88 0.0'
p1863
(lp1864
sS'55 231 1.57079632679'
p1865
(lp1866
sS'231 97 1.57079632679'
p1867
(lp1868
sS'168 246 0.0'
p1869
(lp1870
sS'563 683 0.0'
p1871
(lp1872
sS'646 277 0.0'
p1873
(lp1874
sS'54 597 1.57079632679'
p1875
(lp1876
sS'286 426 0.0'
p1877
(lp1878
sS'389 628 0.0'
p1879
(lp1880
sS'129 235 0.0'
p1881
(lp1882
sS'144 51 0.0'
p1883
(lp1884
sS'503 346 1.57079632679'
p1885
(lp1886
sS'658 238 1.57079632679'
p1887
(lp1888
sS'500 330 0.0'
p1889
(lp1890
sS'692 176 1.57079632679'
p1891
(lp1892
sS'639 626 0.0'
p1893
(lp1894
sS'58 308 1.57079632679'
p1895
(lp1896
sS'99 80 1.57079632679'
p1897
(lp1898
sS'573 621 1.57079632679'
p1899
(lp1900
sS'398 614 0.0'
p1901
(lp1902
sS'399 358 0.0'
p1903
(lp1904
sS'259 610 1.57079632679'
p1905
(lp1906
sS'581 453 1.57079632679'
p1907
(lp1908
sS'184 549 0.0'
p1909
(lp1910
sS'314 431 1.57079632679'
p1911
(lp1912
sS'602 90 1.57079632679'
p1913
(lp1914
sS'236 167 0.0'
p1915
(lp1916
sS'657 198 1.57079632679'
p1917
(lp1918
sS'305 483 0.0'
p1919
(lp1920
sS'410 621 1.57079632679'
p1921
(lp1922
sS'209 88 1.57079632679'
p1923
(lp1924
sS'599 653 0.0'
p1925
(lp1926
sS'115 641 0.0'
p1927
(lp1928
sS'164 520 0.0'
p1929
(lp1930
sS'85 692 1.57079632679'
p1931
(lp1932
sS'396 481 1.57079632679'
p1933
(lp1934
sS'174 492 1.57079632679'
p1935
(lp1936
sS'433 451 1.57079632679'
p1937
(lp1938
sS'547 316 1.57079632679'
p1939
(lp1940
sS'68 689 0.0'
p1941
(lp1942
sS'697 625 1.57079632679'
p1943
(lp1944
sS'258 308 1.57079632679'
p1945
(lp1946
sS'239 671 0.0'
p1947
(lp1948
sS'619 709 0.0'
p1949
(lp1950
sS'687 497 0.0'
p1951
(lp1952
sS'271 492 1.57079632679'
p1953
(lp1954
sS'472 602 0.0'
p1955
(lp1956
sS'199 46 0.0'
p1957
(lp1958
sS'135 486 1.57079632679'
p1959
(lp1960
sS'118 233 1.57079632679'
p1961
(lp1962
sS'101 546 1.57079632679'
p1963
(lp1964
sS'524 207 0.0'
p1965
(lp1966
sS'162 478 0.0'
p1967
(lp1968
sS'432 698 1.57079632679'
p1969
(lp1970
sS'229 675 0.0'
p1971
(lp1972
sS'653 612 0.0'
p1973
(lp1974
sS'371 662 1.57079632679'
p1975
(lp1976
sS'224 688 1.57079632679'
p1977
(lp1978
sS'136 227 1.57079632679'
p1979
(lp1980
sS'625 483 0.0'
p1981
(lp1982
sS'98 70 0.0'
p1983
(lp1984
sS'427 419 1.57079632679'
p1985
(lp1986
sS'443 72 0.0'
p1987
(lp1988
sS'345 390 1.57079632679'
p1989
(lp1990
sS'470 347 0.0'
p1991
(lp1992
sS'59 339 0.0'
p1993
(lp1994
sS'436 85 0.0'
p1995
(lp1996
sS'326 710 1.57079632679'
p1997
(lp1998
sS'657 214 0.0'
p1999
(lp2000
sS'129 568 1.57079632679'
p2001
(lp2002
sS'490 344 0.0'
p2003
(lp2004
sS'470 63 0.0'
p2005
(lp2006
sS'221 199 1.57079632679'
p2007
(lp2008
sS'629 367 1.57079632679'
p2009
(lp2010
sS'155 225 0.0'
p2011
(lp2012
sS'680 86 1.57079632679'
p2013
(lp2014
sS'389 177 0.0'
p2015
(lp2016
sS'224 351 0.0'
p2017
(lp2018
sS'270 428 1.57079632679'
p2019
(lp2020
sS'393 714 0.0'
p2021
(lp2022
sS'65 206 0.0'
p2023
(lp2024
sS'363 99 1.57079632679'
p2025
(lp2026
sS'654 285 1.57079632679'
p2027
(lp2028
sS'117 94 0.0'
p2029
(lp2030
sS'83 318 0.0'
p2031
(lp2032
sS'358 703 0.0'
p2033
(lp2034
sS'639 159 1.57079632679'
p2035
(lp2036
sS'453 698 0.0'
p2037
(lp2038
sS'251 121 1.57079632679'
p2039
(lp2040
sS'265 453 1.57079632679'
p2041
(lp2042
sS'536 252 0.0'
p2043
(lp2044
sS'572 715 1.57079632679'
p2045
(lp2046
sS'366 326 1.57079632679'
p2047
(lp2048
sS'397 676 1.57079632679'
p2049
(lp2050
sS'212 71 0.0'
p2051
(lp2052
sS'630 709 0.0'
p2053
(lp2054
sS'673 706 1.57079632679'
p2055
(lp2056
sS'208 543 1.57079632679'
p2057
(lp2058
sS'66 349 1.57079632679'
p2059
(lp2060
sS'262 652 1.57079632679'
p2061
(lp2062
sS'395 188 1.57079632679'
p2063
(lp2064
sS'596 186 1.57079632679'
p2065
(lp2066
sS'398 417 0.0'
p2067
(lp2068
sS'285 499 0.0'
p2069
(lp2070
sS'276 440 1.57079632679'
p2071
(lp2072
sS'217 398 0.0'
p2073
(lp2074
s.